; ModuleID = '/workspace/triangle/triangle/solution1/.autopilot/db/a.o.3.bc'
target datalayout = "e-p:64:64:64-i1:8:8-i8:8:8-i16:16:16-i32:32:32-i64:64:64-f32:32:32-f64:64:64-v64:64:64-v128:128:128-a0:0:64-s0:64:64-f80:128:128-n8:16:32:64-S128"
target triple = "x86_64-unknown-linux-gnu"

@val_V = internal unnamed_addr global i24 0       ; [#uses=2 type=i24*]
@triangle_str = internal unnamed_addr constant [9 x i8] c"triangle\00" ; [#uses=1 type=[9 x i8]*]
@llvm_global_ctors_1 = appending global [1 x void ()*] [void ()* @_GLOBAL__I_a] ; [#uses=0 type=[1 x void ()*]*]
@llvm_global_ctors_0 = appending global [1 x i32] [i32 65535] ; [#uses=0 type=[1 x i32]*]
@err = internal unnamed_addr global i32 -48000, align 4 ; [#uses=2 type=i32*]
@p_str3 = private unnamed_addr constant [5 x i8] c"both\00", align 1 ; [#uses=1 type=[5 x i8]*]
@p_str2 = private unnamed_addr constant [5 x i8] c"axis\00", align 1 ; [#uses=1 type=[5 x i8]*]
@p_str1 = private unnamed_addr constant [13 x i8] c"ap_ctrl_none\00", align 1 ; [#uses=1 type=[13 x i8]*]
@p_str = private unnamed_addr constant [1 x i8] zeroinitializer, align 1 ; [#uses=11 type=[1 x i8]*]

; [#uses=0]
define void @triangle(i32* %out_V) {
codeRepl_ifconv:
  call void (...)* @_ssdm_op_SpecBitsMap(i32* %out_V), !map !43
  call void (...)* @_ssdm_op_SpecTopModule([9 x i8]* @triangle_str) nounwind
  call void @llvm.dbg.value(metadata !{i32* %out_V}, i64 0, metadata !62), !dbg !146 ; [debug line = 23:25] [debug variable = out.V]
  call void (...)* @_ssdm_op_SpecInterface(i32 0, [13 x i8]* @p_str1, i32 0, i32 0, [1 x i8]* @p_str, i32 0, i32 0, [1 x i8]* @p_str, [1 x i8]* @p_str, [1 x i8]* @p_str, i32 0, i32 0, i32 0, i32 0, [1 x i8]* @p_str, [1 x i8]* @p_str) nounwind, !dbg !147 ; [debug line = 25:1]
  call void (...)* @_ssdm_op_SpecInterface(i32* %out_V, [5 x i8]* @p_str2, i32 1, i32 1, [5 x i8]* @p_str3, i32 0, i32 0, [1 x i8]* @p_str, [1 x i8]* @p_str, [1 x i8]* @p_str, i32 0, i32 0, i32 0, i32 0, [1 x i8]* @p_str, [1 x i8]* @p_str) nounwind
  %val_V_load = load i24* @val_V, align 4, !dbg !149 ; [#uses=2 type=i24] [debug line = 1655:70@27:26]
  %tmp = call i32 @_ssdm_op_BitConcatenate.i32.i24.i8(i24 %val_V_load, i8 0), !dbg !441 ; [#uses=1 type=i32] [debug line = 145:31@106:9@29:2]
  call void @llvm.dbg.value(metadata !{i32 %tmp}, i64 0, metadata !448), !dbg !441 ; [debug line = 145:31@106:9@29:2] [debug variable = tmp]
  call void @_ssdm_op_Write.axis.volatile.i32P(i32* %out_V, i32 %tmp)
  %err_load = load i32* @err, align 4, !dbg !452  ; [#uses=2 type=i32] [debug line = 33:2]
  %tmp_6 = add nsw i32 %err_load, 32000, !dbg !452 ; [#uses=2 type=i32] [debug line = 33:2]
  %tmp_7 = icmp sgt i32 %tmp_6, 48000, !dbg !453  ; [#uses=2 type=i1] [debug line = 34:2]
  %tmp_8 = add nsw i32 %err_load, -64000, !dbg !454 ; [#uses=1 type=i32] [debug line = 35:3]
  %val_V_new_v_cast_cas = select i1 %tmp_7, i24 349526, i24 349525 ; [#uses=1 type=i24]
  %val_V_new = add i24 %val_V_load, %val_V_new_v_cast_cas ; [#uses=1 type=i24]
  %err_new = select i1 %tmp_7, i32 %tmp_8, i32 %tmp_6 ; [#uses=1 type=i32]
  store i32 %err_new, i32* @err, align 4, !dbg !452 ; [debug line = 33:2]
  store i24 %val_V_new, i24* @val_V, align 4, !dbg !456 ; [debug line = 1824:147@3540:159@32:2]
  ret void, !dbg !1009                            ; [debug line = 38:1]
}

; [#uses=2]
declare void @llvm.dbg.value(metadata, i64, metadata) nounwind readnone

; [#uses=1]
define weak void @_ssdm_op_Write.axis.volatile.i32P(i32*, i32) {
entry:
  store i32 %1, i32* %0
  ret void
}

; [#uses=1]
define weak void @_ssdm_op_SpecTopModule(...) {
entry:
  ret void
}

; [#uses=2]
define weak void @_ssdm_op_SpecInterface(...) nounwind {
entry:
  ret void
}

; [#uses=1]
define weak void @_ssdm_op_SpecBitsMap(...) {
entry:
  ret void
}

; [#uses=1]
define weak i32 @_ssdm_op_BitConcatenate.i32.i24.i8(i24, i8) nounwind readnone {
entry:
  %empty = zext i24 %0 to i32                     ; [#uses=1 type=i32]
  %empty_2 = zext i8 %1 to i32                    ; [#uses=1 type=i32]
  %empty_3 = shl i32 %empty, 8                    ; [#uses=1 type=i32]
  %empty_4 = or i32 %empty_3, %empty_2            ; [#uses=1 type=i32]
  ret i32 %empty_4
}

; [#uses=1]
declare void @_GLOBAL__I_a() nounwind section ".text.startup"

!opencl.kernels = !{!0, !7, !10, !10, !12, !18, !21, !10, !10, !12, !27, !29, !32, !12, !34, !34, !12, !12}
!hls.encrypted.func = !{}
!llvm.map.gv = !{!36}

!0 = metadata !{null, metadata !1, metadata !2, metadata !3, metadata !4, metadata !5, metadata !6}
!1 = metadata !{metadata !"kernel_arg_addr_space", i32 0}
!2 = metadata !{metadata !"kernel_arg_access_qual", metadata !"none"}
!3 = metadata !{metadata !"kernel_arg_type", metadata !"stream<padded_sample> &"}
!4 = metadata !{metadata !"kernel_arg_type_qual", metadata !""}
!5 = metadata !{metadata !"kernel_arg_name", metadata !"out"}
!6 = metadata !{metadata !"reqd_work_group_size", i32 1, i32 1, i32 1}
!7 = metadata !{null, metadata !1, metadata !2, metadata !8, metadata !4, metadata !9, metadata !6}
!8 = metadata !{metadata !"kernel_arg_type", metadata !"int"}
!9 = metadata !{metadata !"kernel_arg_name", metadata !""}
!10 = metadata !{null, metadata !1, metadata !2, metadata !8, metadata !4, metadata !11, metadata !6}
!11 = metadata !{metadata !"kernel_arg_name", metadata !"op"}
!12 = metadata !{null, metadata !13, metadata !14, metadata !15, metadata !16, metadata !17, metadata !6}
!13 = metadata !{metadata !"kernel_arg_addr_space"}
!14 = metadata !{metadata !"kernel_arg_access_qual"}
!15 = metadata !{metadata !"kernel_arg_type"}
!16 = metadata !{metadata !"kernel_arg_type_qual"}
!17 = metadata !{metadata !"kernel_arg_name"}
!18 = metadata !{null, metadata !1, metadata !2, metadata !19, metadata !4, metadata !20, metadata !6}
!19 = metadata !{metadata !"kernel_arg_type", metadata !"const ap_int_base<1, false> &"}
!20 = metadata !{metadata !"kernel_arg_name", metadata !"op2"}
!21 = metadata !{null, metadata !22, metadata !23, metadata !24, metadata !25, metadata !26, metadata !6}
!22 = metadata !{metadata !"kernel_arg_addr_space", i32 0, i32 0}
!23 = metadata !{metadata !"kernel_arg_access_qual", metadata !"none", metadata !"none"}
!24 = metadata !{metadata !"kernel_arg_type", metadata !"ap_int_base<24, true> &", metadata !"int"}
!25 = metadata !{metadata !"kernel_arg_type_qual", metadata !"", metadata !""}
!26 = metadata !{metadata !"kernel_arg_name", metadata !"op", metadata !"op2"}
!27 = metadata !{null, metadata !1, metadata !2, metadata !28, metadata !4, metadata !20, metadata !6}
!28 = metadata !{metadata !"kernel_arg_type", metadata !"const ap_int_base<32, true> &"}
!29 = metadata !{null, metadata !1, metadata !2, metadata !30, metadata !4, metadata !31, metadata !6}
!30 = metadata !{metadata !"kernel_arg_type", metadata !"const padded_sample &"}
!31 = metadata !{metadata !"kernel_arg_name", metadata !"wdata"}
!32 = metadata !{null, metadata !1, metadata !2, metadata !30, metadata !4, metadata !33, metadata !6}
!33 = metadata !{metadata !"kernel_arg_name", metadata !"din"}
!34 = metadata !{null, metadata !1, metadata !2, metadata !8, metadata !4, metadata !35, metadata !6}
!35 = metadata !{metadata !"kernel_arg_name", metadata !"val"}
!36 = metadata !{metadata !37, [1 x i32]* @llvm_global_ctors_0}
!37 = metadata !{metadata !38}
!38 = metadata !{i32 0, i32 31, metadata !39}
!39 = metadata !{metadata !40}
!40 = metadata !{metadata !"llvm.global_ctors.0", metadata !41, metadata !"", i32 0, i32 31}
!41 = metadata !{metadata !42}
!42 = metadata !{i32 0, i32 0, i32 1}
!43 = metadata !{metadata !44, metadata !47, metadata !52, metadata !57}
!44 = metadata !{i32 0, i32 7, metadata !45}
!45 = metadata !{metadata !46}
!46 = metadata !{metadata !"out.V.padding", metadata !41, metadata !"unsigned int", i32 0, i32 7}
!47 = metadata !{i32 8, i32 15, metadata !48}
!48 = metadata !{metadata !49}
!49 = metadata !{metadata !"out.V.data", metadata !50, metadata !"int", i32 0, i32 7}
!50 = metadata !{metadata !51}
!51 = metadata !{i32 0, i32 0, i32 2}
!52 = metadata !{i32 16, i32 23, metadata !53}
!53 = metadata !{metadata !54}
!54 = metadata !{metadata !"out.V.data", metadata !55, metadata !"int", i32 0, i32 7}
!55 = metadata !{metadata !56}
!56 = metadata !{i32 1, i32 1, i32 2}
!57 = metadata !{i32 24, i32 31, metadata !58}
!58 = metadata !{metadata !59}
!59 = metadata !{metadata !"out.V.data", metadata !60, metadata !"int", i32 0, i32 7}
!60 = metadata !{metadata !61}
!61 = metadata !{i32 2, i32 2, i32 2}
!62 = metadata !{i32 790544, metadata !63, metadata !"out.V", null, i32 23, metadata !132, i32 0, i32 0, metadata !134, metadata !140} ; [ DW_TAG_arg_variable_aggr_vec ]
!63 = metadata !{i32 786689, metadata !64, metadata !"out", metadata !65, i32 16777239, metadata !68, i32 0, i32 0} ; [ DW_TAG_arg_variable ]
!64 = metadata !{i32 786478, i32 0, metadata !65, metadata !"triangle", metadata !"triangle", metadata !"_Z8triangleRN3hls6streamI13padded_sampleEE", metadata !65, i32 22, metadata !66, i1 false, i1 true, i32 0, i32 0, null, i32 256, i1 false, null, null, null, metadata !85, i32 24} ; [ DW_TAG_subprogram ]
!65 = metadata !{i32 786473, metadata !"triangle.cpp", metadata !"/workspace/triangle", null} ; [ DW_TAG_file_type ]
!66 = metadata !{i32 786453, i32 0, metadata !"", i32 0, i32 0, i64 0, i64 0, i64 0, i32 0, null, metadata !67, i32 0, i32 0} ; [ DW_TAG_subroutine_type ]
!67 = metadata !{null, metadata !68}
!68 = metadata !{i32 786448, null, null, null, i32 0, i64 0, i64 0, i64 0, i32 0, metadata !69} ; [ DW_TAG_reference_type ]
!69 = metadata !{i32 786434, metadata !70, metadata !"stream<padded_sample>", metadata !71, i32 79, i64 32, i64 32, i32 0, i32 0, null, metadata !72, i32 0, null, metadata !130} ; [ DW_TAG_class_type ]
!70 = metadata !{i32 786489, null, metadata !"hls", metadata !71, i32 69} ; [ DW_TAG_namespace ]
!71 = metadata !{i32 786473, metadata !"/opt/Xilinx/Vivado_HLS/2017.2/common/technology/autopilot/hls_stream.h", metadata !"/workspace/triangle", null} ; [ DW_TAG_file_type ]
!72 = metadata !{metadata !73, metadata !81, metadata !87, metadata !93, metadata !98, metadata !101, metadata !105, metadata !110, metadata !115, metadata !116, metadata !117, metadata !120, metadata !123, metadata !124, metadata !127}
!73 = metadata !{i32 786445, metadata !69, metadata !"V", metadata !71, i32 163, i64 32, i64 32, i64 0, i32 0, metadata !74} ; [ DW_TAG_member ]
!74 = metadata !{i32 786434, null, metadata !"", metadata !75, i32 7, i64 32, i64 32, i32 0, i32 0, null, metadata !76, i32 0, null, null} ; [ DW_TAG_class_type ]
!75 = metadata !{i32 786473, metadata !"./triangle.h", metadata !"/workspace/triangle", null} ; [ DW_TAG_file_type ]
!76 = metadata !{metadata !77, metadata !79}
!77 = metadata !{i32 786445, metadata !74, metadata !"padding", metadata !75, i32 8, i64 8, i64 32, i64 0, i32 0, metadata !78} ; [ DW_TAG_member ]
!78 = metadata !{i32 786468, null, metadata !"unsigned int", null, i32 0, i64 32, i64 32, i64 0, i32 0, i32 7} ; [ DW_TAG_base_type ]
!79 = metadata !{i32 786445, metadata !74, metadata !"data", metadata !75, i32 9, i64 24, i64 32, i64 8, i32 0, metadata !80} ; [ DW_TAG_member ]
!80 = metadata !{i32 786468, null, metadata !"int", null, i32 0, i64 32, i64 32, i64 0, i32 0, i32 5} ; [ DW_TAG_base_type ]
!81 = metadata !{i32 786478, i32 0, metadata !69, metadata !"stream", metadata !"stream", metadata !"", metadata !71, i32 83, metadata !82, i1 false, i1 false, i32 0, i32 0, null, i32 256, i1 false, null, null, i32 0, metadata !85, i32 83} ; [ DW_TAG_subprogram ]
!82 = metadata !{i32 786453, i32 0, metadata !"", i32 0, i32 0, i64 0, i64 0, i64 0, i32 0, null, metadata !83, i32 0, i32 0} ; [ DW_TAG_subroutine_type ]
!83 = metadata !{null, metadata !84}
!84 = metadata !{i32 786447, i32 0, metadata !"", i32 0, i32 0, i64 64, i64 64, i64 0, i32 64, metadata !69} ; [ DW_TAG_pointer_type ]
!85 = metadata !{metadata !86}
!86 = metadata !{i32 786468}                      ; [ DW_TAG_base_type ]
!87 = metadata !{i32 786478, i32 0, metadata !69, metadata !"stream", metadata !"stream", metadata !"", metadata !71, i32 86, metadata !88, i1 false, i1 false, i32 0, i32 0, null, i32 256, i1 false, null, null, i32 0, metadata !85, i32 86} ; [ DW_TAG_subprogram ]
!88 = metadata !{i32 786453, i32 0, metadata !"", i32 0, i32 0, i64 0, i64 0, i64 0, i32 0, null, metadata !89, i32 0, i32 0} ; [ DW_TAG_subroutine_type ]
!89 = metadata !{null, metadata !84, metadata !90}
!90 = metadata !{i32 786447, null, metadata !"", null, i32 0, i64 64, i64 64, i64 0, i32 0, metadata !91} ; [ DW_TAG_pointer_type ]
!91 = metadata !{i32 786470, null, metadata !"", null, i32 0, i64 0, i64 0, i64 0, i32 0, metadata !92} ; [ DW_TAG_const_type ]
!92 = metadata !{i32 786468, null, metadata !"char", null, i32 0, i64 8, i64 8, i64 0, i32 0, i32 6} ; [ DW_TAG_base_type ]
!93 = metadata !{i32 786478, i32 0, metadata !69, metadata !"stream", metadata !"stream", metadata !"", metadata !71, i32 91, metadata !94, i1 false, i1 false, i32 0, i32 0, null, i32 257, i1 false, null, null, i32 0, metadata !85, i32 91} ; [ DW_TAG_subprogram ]
!94 = metadata !{i32 786453, i32 0, metadata !"", i32 0, i32 0, i64 0, i64 0, i64 0, i32 0, null, metadata !95, i32 0, i32 0} ; [ DW_TAG_subroutine_type ]
!95 = metadata !{null, metadata !84, metadata !96}
!96 = metadata !{i32 786448, null, null, null, i32 0, i64 0, i64 0, i64 0, i32 0, metadata !97} ; [ DW_TAG_reference_type ]
!97 = metadata !{i32 786470, null, metadata !"", null, i32 0, i64 0, i64 0, i64 0, i32 0, metadata !69} ; [ DW_TAG_const_type ]
!98 = metadata !{i32 786478, i32 0, metadata !69, metadata !"operator=", metadata !"operator=", metadata !"_ZN3hls6streamI13padded_sampleEaSERKS2_", metadata !71, i32 94, metadata !99, i1 false, i1 false, i32 0, i32 0, null, i32 257, i1 false, null, null, i32 0, metadata !85, i32 94} ; [ DW_TAG_subprogram ]
!99 = metadata !{i32 786453, i32 0, metadata !"", i32 0, i32 0, i64 0, i64 0, i64 0, i32 0, null, metadata !100, i32 0, i32 0} ; [ DW_TAG_subroutine_type ]
!100 = metadata !{metadata !68, metadata !84, metadata !96}
!101 = metadata !{i32 786478, i32 0, metadata !69, metadata !"operator>>", metadata !"operator>>", metadata !"_ZN3hls6streamI13padded_sampleErsERS1_", metadata !71, i32 101, metadata !102, i1 false, i1 false, i32 0, i32 0, null, i32 256, i1 false, null, null, i32 0, metadata !85, i32 101} ; [ DW_TAG_subprogram ]
!102 = metadata !{i32 786453, i32 0, metadata !"", i32 0, i32 0, i64 0, i64 0, i64 0, i32 0, null, metadata !103, i32 0, i32 0} ; [ DW_TAG_subroutine_type ]
!103 = metadata !{null, metadata !84, metadata !104}
!104 = metadata !{i32 786448, null, null, null, i32 0, i64 0, i64 0, i64 0, i32 0, metadata !74} ; [ DW_TAG_reference_type ]
!105 = metadata !{i32 786478, i32 0, metadata !69, metadata !"operator<<", metadata !"operator<<", metadata !"_ZN3hls6streamI13padded_sampleElsERKS1_", metadata !71, i32 105, metadata !106, i1 false, i1 false, i32 0, i32 0, null, i32 256, i1 false, null, null, i32 0, metadata !85, i32 105} ; [ DW_TAG_subprogram ]
!106 = metadata !{i32 786453, i32 0, metadata !"", i32 0, i32 0, i64 0, i64 0, i64 0, i32 0, null, metadata !107, i32 0, i32 0} ; [ DW_TAG_subroutine_type ]
!107 = metadata !{null, metadata !84, metadata !108}
!108 = metadata !{i32 786448, null, null, null, i32 0, i64 0, i64 0, i64 0, i32 0, metadata !109} ; [ DW_TAG_reference_type ]
!109 = metadata !{i32 786470, null, metadata !"", null, i32 0, i64 0, i64 0, i64 0, i32 0, metadata !74} ; [ DW_TAG_const_type ]
!110 = metadata !{i32 786478, i32 0, metadata !69, metadata !"empty", metadata !"empty", metadata !"_ZNK3hls6streamI13padded_sampleE5emptyEv", metadata !71, i32 112, metadata !111, i1 false, i1 false, i32 0, i32 0, null, i32 256, i1 false, null, null, i32 0, metadata !85, i32 112} ; [ DW_TAG_subprogram ]
!111 = metadata !{i32 786453, i32 0, metadata !"", i32 0, i32 0, i64 0, i64 0, i64 0, i32 0, null, metadata !112, i32 0, i32 0} ; [ DW_TAG_subroutine_type ]
!112 = metadata !{metadata !113, metadata !114}
!113 = metadata !{i32 786468, null, metadata !"bool", null, i32 0, i64 8, i64 8, i64 0, i32 0, i32 2} ; [ DW_TAG_base_type ]
!114 = metadata !{i32 786447, i32 0, metadata !"", i32 0, i32 0, i64 64, i64 64, i64 0, i32 64, metadata !97} ; [ DW_TAG_pointer_type ]
!115 = metadata !{i32 786478, i32 0, metadata !69, metadata !"full", metadata !"full", metadata !"_ZNK3hls6streamI13padded_sampleE4fullEv", metadata !71, i32 117, metadata !111, i1 false, i1 false, i32 0, i32 0, null, i32 256, i1 false, null, null, i32 0, metadata !85, i32 117} ; [ DW_TAG_subprogram ]
!116 = metadata !{i32 786478, i32 0, metadata !69, metadata !"read", metadata !"read", metadata !"_ZN3hls6streamI13padded_sampleE4readERS1_", metadata !71, i32 123, metadata !102, i1 false, i1 false, i32 0, i32 0, null, i32 256, i1 false, null, null, i32 0, metadata !85, i32 123} ; [ DW_TAG_subprogram ]
!117 = metadata !{i32 786478, i32 0, metadata !69, metadata !"read", metadata !"read", metadata !"_ZN3hls6streamI13padded_sampleE4readEv", metadata !71, i32 129, metadata !118, i1 false, i1 false, i32 0, i32 0, null, i32 256, i1 false, null, null, i32 0, metadata !85, i32 129} ; [ DW_TAG_subprogram ]
!118 = metadata !{i32 786453, i32 0, metadata !"", i32 0, i32 0, i64 0, i64 0, i64 0, i32 0, null, metadata !119, i32 0, i32 0} ; [ DW_TAG_subroutine_type ]
!119 = metadata !{metadata !74, metadata !84}
!120 = metadata !{i32 786478, i32 0, metadata !69, metadata !"read_nb", metadata !"read_nb", metadata !"_ZN3hls6streamI13padded_sampleE7read_nbERS1_", metadata !71, i32 136, metadata !121, i1 false, i1 false, i32 0, i32 0, null, i32 256, i1 false, null, null, i32 0, metadata !85, i32 136} ; [ DW_TAG_subprogram ]
!121 = metadata !{i32 786453, i32 0, metadata !"", i32 0, i32 0, i64 0, i64 0, i64 0, i32 0, null, metadata !122, i32 0, i32 0} ; [ DW_TAG_subroutine_type ]
!122 = metadata !{metadata !113, metadata !84, metadata !104}
!123 = metadata !{i32 786478, i32 0, metadata !69, metadata !"write", metadata !"write", metadata !"_ZN3hls6streamI13padded_sampleE5writeERKS1_", metadata !71, i32 144, metadata !106, i1 false, i1 false, i32 0, i32 0, null, i32 256, i1 false, null, null, i32 0, metadata !85, i32 144} ; [ DW_TAG_subprogram ]
!124 = metadata !{i32 786478, i32 0, metadata !69, metadata !"write_nb", metadata !"write_nb", metadata !"_ZN3hls6streamI13padded_sampleE8write_nbERKS1_", metadata !71, i32 150, metadata !125, i1 false, i1 false, i32 0, i32 0, null, i32 256, i1 false, null, null, i32 0, metadata !85, i32 150} ; [ DW_TAG_subprogram ]
!125 = metadata !{i32 786453, i32 0, metadata !"", i32 0, i32 0, i64 0, i64 0, i64 0, i32 0, null, metadata !126, i32 0, i32 0} ; [ DW_TAG_subroutine_type ]
!126 = metadata !{metadata !113, metadata !84, metadata !108}
!127 = metadata !{i32 786478, i32 0, metadata !69, metadata !"size", metadata !"size", metadata !"_ZN3hls6streamI13padded_sampleE4sizeEv", metadata !71, i32 157, metadata !128, i1 false, i1 false, i32 0, i32 0, null, i32 256, i1 false, null, null, i32 0, metadata !85, i32 157} ; [ DW_TAG_subprogram ]
!128 = metadata !{i32 786453, i32 0, metadata !"", i32 0, i32 0, i64 0, i64 0, i64 0, i32 0, null, metadata !129, i32 0, i32 0} ; [ DW_TAG_subroutine_type ]
!129 = metadata !{metadata !78, metadata !84}
!130 = metadata !{metadata !131}
!131 = metadata !{i32 786479, null, metadata !"__STREAM_T__", metadata !74, null, i32 0, i32 0} ; [ DW_TAG_template_type_parameter ]
!132 = metadata !{i32 786447, null, metadata !"", null, i32 0, i64 64, i64 0, i64 0, i32 0, metadata !133} ; [ DW_TAG_pointer_type ]
!133 = metadata !{i32 786468, null, metadata !"int32", null, i32 0, i64 32, i64 32, i64 0, i32 0, i32 5} ; [ DW_TAG_base_type ]
!134 = metadata !{i32 790531, metadata !63, metadata !"out.V.padding", null, i32 23, metadata !135, i32 0, i32 0} ; [ DW_TAG_arg_variable_field ]
!135 = metadata !{i32 786447, null, metadata !"", null, i32 0, i64 0, i64 0, i64 0, i32 0, metadata !136} ; [ DW_TAG_pointer_type ]
!136 = metadata !{i32 786438, metadata !70, metadata !"stream<padded_sample>", metadata !71, i32 79, i64 8, i64 32, i32 0, i32 0, null, metadata !137, i32 0, null, metadata !130} ; [ DW_TAG_class_field_type ]
!137 = metadata !{metadata !138}
!138 = metadata !{i32 786438, null, metadata !"", metadata !75, i32 7, i64 8, i64 32, i32 0, i32 0, null, metadata !139, i32 0, null, null} ; [ DW_TAG_class_field_type ]
!139 = metadata !{metadata !77}
!140 = metadata !{i32 790531, metadata !63, metadata !"out.V.data", null, i32 23, metadata !141, i32 0, i32 0} ; [ DW_TAG_arg_variable_field ]
!141 = metadata !{i32 786447, null, metadata !"", null, i32 0, i64 0, i64 0, i64 0, i32 0, metadata !142} ; [ DW_TAG_pointer_type ]
!142 = metadata !{i32 786438, metadata !70, metadata !"stream<padded_sample>", metadata !71, i32 79, i64 24, i64 32, i32 0, i32 0, null, metadata !143, i32 0, null, metadata !130} ; [ DW_TAG_class_field_type ]
!143 = metadata !{metadata !144}
!144 = metadata !{i32 786438, null, metadata !"", metadata !75, i32 7, i64 24, i64 32, i32 0, i32 0, null, metadata !145, i32 0, null, null} ; [ DW_TAG_class_field_type ]
!145 = metadata !{metadata !79}
!146 = metadata !{i32 23, i32 25, metadata !64, null}
!147 = metadata !{i32 25, i32 1, metadata !148, null}
!148 = metadata !{i32 786443, metadata !64, i32 24, i32 3, metadata !65, i32 0} ; [ DW_TAG_lexical_block ]
!149 = metadata !{i32 1655, i32 70, metadata !150, metadata !440}
!150 = metadata !{i32 786443, metadata !151, i32 1655, i32 68, metadata !152, i32 12} ; [ DW_TAG_lexical_block ]
!151 = metadata !{i32 786478, i32 0, null, metadata !"operator int", metadata !"operator int", metadata !"_ZNK11ap_int_baseILi24ELb1ELb1EEcviEv", metadata !152, i32 1655, metadata !153, i1 false, i1 true, i32 0, i32 0, null, i32 256, i1 false, null, null, metadata !304, metadata !85, i32 1655} ; [ DW_TAG_subprogram ]
!152 = metadata !{i32 786473, metadata !"/opt/Xilinx/Vivado_HLS/2017.2/common/technology/autopilot/ap_int_syn.h", metadata !"/workspace/triangle", null} ; [ DW_TAG_file_type ]
!153 = metadata !{i32 786453, i32 0, metadata !"", i32 0, i32 0, i64 0, i64 0, i64 0, i32 0, null, metadata !154, i32 0, i32 0} ; [ DW_TAG_subroutine_type ]
!154 = metadata !{metadata !155, metadata !308}
!155 = metadata !{i32 786454, metadata !156, metadata !"RetType", metadata !152, i32 1403, i64 0, i64 0, i64 0, i32 0, metadata !435} ; [ DW_TAG_typedef ]
!156 = metadata !{i32 786434, null, metadata !"ap_int_base<24, true, true>", metadata !152, i32 1398, i64 32, i64 32, i32 0, i32 0, null, metadata !157, i32 0, null, metadata !432} ; [ DW_TAG_class_type ]
!157 = metadata !{metadata !158, metadata !176, metadata !180, metadata !188, metadata !194, metadata !197, metadata !201, metadata !205, metadata !209, metadata !213, metadata !216, metadata !219, metadata !223, metadata !227, metadata !232, metadata !237, metadata !242, metadata !246, metadata !250, metadata !253, metadata !256, metadata !260, metadata !263, metadata !266, metadata !267, metadata !271, metadata !274, metadata !277, metadata !280, metadata !283, metadata !286, metadata !289, metadata !292, metadata !295, metadata !298, metadata !301, metadata !304, metadata !305, metadata !309, metadata !312, metadata !315, metadata !318, metadata !321, metadata !324, metadata !327, metadata !330, metadata !333, metadata !336, metadata !339, metadata !342, metadata !343, metadata !347, metadata !350, metadata !351, metadata !352, metadata !353, metadata !354, metadata !355, metadata !358, metadata !359, metadata !362, metadata !363, metadata !364, metadata !365, metadata !366, metadata !367, metadata !370, metadata !371, metadata !372, metadata !375, metadata !376, metadata !379, metadata !380, metadata !384, metadata !388, metadata !389, metadata !392, metadata !393, metadata !397, metadata !398, metadata !399, metadata !400, metadata !403, metadata !404, metadata !405, metadata !406, metadata !407, metadata !408, metadata !409, metadata !410, metadata !411, metadata !412, metadata !413, metadata !414, metadata !424, metadata !427, metadata !430, metadata !431}
!158 = metadata !{i32 786460, metadata !156, null, metadata !152, i32 0, i64 0, i64 0, i64 0, i32 0, metadata !159} ; [ DW_TAG_inheritance ]
!159 = metadata !{i32 786434, null, metadata !"ssdm_int<24 + 1024 * 0, true>", metadata !160, i32 26, i64 32, i64 32, i32 0, i32 0, null, metadata !161, i32 0, null, metadata !173} ; [ DW_TAG_class_type ]
!160 = metadata !{i32 786473, metadata !"/opt/Xilinx/Vivado_HLS/2017.2/common/technology/autopilot/etc/autopilot_dt.def", metadata !"/workspace/triangle", null} ; [ DW_TAG_file_type ]
!161 = metadata !{metadata !162, metadata !164, metadata !168}
!162 = metadata !{i32 786445, metadata !159, metadata !"V", metadata !160, i32 26, i64 24, i64 32, i64 0, i32 0, metadata !163} ; [ DW_TAG_member ]
!163 = metadata !{i32 786468, null, metadata !"int24", null, i32 0, i64 24, i64 32, i64 0, i32 0, i32 5} ; [ DW_TAG_base_type ]
!164 = metadata !{i32 786478, i32 0, metadata !159, metadata !"ssdm_int", metadata !"ssdm_int", metadata !"", metadata !160, i32 26, metadata !165, i1 false, i1 false, i32 0, i32 0, null, i32 256, i1 false, null, null, i32 0, metadata !85, i32 26} ; [ DW_TAG_subprogram ]
!165 = metadata !{i32 786453, i32 0, metadata !"", i32 0, i32 0, i64 0, i64 0, i64 0, i32 0, null, metadata !166, i32 0, i32 0} ; [ DW_TAG_subroutine_type ]
!166 = metadata !{null, metadata !167}
!167 = metadata !{i32 786447, i32 0, metadata !"", i32 0, i32 0, i64 64, i64 64, i64 0, i32 64, metadata !159} ; [ DW_TAG_pointer_type ]
!168 = metadata !{i32 786478, i32 0, metadata !159, metadata !"ssdm_int", metadata !"ssdm_int", metadata !"", metadata !160, i32 26, metadata !169, i1 false, i1 false, i32 0, i32 0, null, i32 320, i1 false, null, null, i32 0, metadata !85, i32 26} ; [ DW_TAG_subprogram ]
!169 = metadata !{i32 786453, i32 0, metadata !"", i32 0, i32 0, i64 0, i64 0, i64 0, i32 0, null, metadata !170, i32 0, i32 0} ; [ DW_TAG_subroutine_type ]
!170 = metadata !{null, metadata !167, metadata !171}
!171 = metadata !{i32 786448, null, null, null, i32 0, i64 0, i64 0, i64 0, i32 0, metadata !172} ; [ DW_TAG_reference_type ]
!172 = metadata !{i32 786470, null, metadata !"", null, i32 0, i64 0, i64 0, i64 0, i32 0, metadata !159} ; [ DW_TAG_const_type ]
!173 = metadata !{metadata !174, metadata !175}
!174 = metadata !{i32 786480, null, metadata !"_AP_N", metadata !80, i64 24, null, i32 0, i32 0} ; [ DW_TAG_template_value_parameter ]
!175 = metadata !{i32 786480, null, metadata !"_AP_S", metadata !113, i64 1, null, i32 0, i32 0} ; [ DW_TAG_template_value_parameter ]
!176 = metadata !{i32 786478, i32 0, metadata !156, metadata !"ap_int_base", metadata !"ap_int_base", metadata !"", metadata !152, i32 1439, metadata !177, i1 false, i1 false, i32 0, i32 0, null, i32 256, i1 false, null, null, i32 0, metadata !85, i32 1439} ; [ DW_TAG_subprogram ]
!177 = metadata !{i32 786453, i32 0, metadata !"", i32 0, i32 0, i64 0, i64 0, i64 0, i32 0, null, metadata !178, i32 0, i32 0} ; [ DW_TAG_subroutine_type ]
!178 = metadata !{null, metadata !179}
!179 = metadata !{i32 786447, i32 0, metadata !"", i32 0, i32 0, i64 64, i64 64, i64 0, i32 64, metadata !156} ; [ DW_TAG_pointer_type ]
!180 = metadata !{i32 786478, i32 0, metadata !156, metadata !"ap_int_base<24, true>", metadata !"ap_int_base<24, true>", metadata !"", metadata !152, i32 1451, metadata !181, i1 false, i1 false, i32 0, i32 0, null, i32 256, i1 false, null, metadata !185, i32 0, metadata !85, i32 1451} ; [ DW_TAG_subprogram ]
!181 = metadata !{i32 786453, i32 0, metadata !"", i32 0, i32 0, i64 0, i64 0, i64 0, i32 0, null, metadata !182, i32 0, i32 0} ; [ DW_TAG_subroutine_type ]
!182 = metadata !{null, metadata !179, metadata !183}
!183 = metadata !{i32 786448, null, null, null, i32 0, i64 0, i64 0, i64 0, i32 0, metadata !184} ; [ DW_TAG_reference_type ]
!184 = metadata !{i32 786470, null, metadata !"", null, i32 0, i64 0, i64 0, i64 0, i32 0, metadata !156} ; [ DW_TAG_const_type ]
!185 = metadata !{metadata !186, metadata !187}
!186 = metadata !{i32 786480, null, metadata !"_AP_W2", metadata !80, i64 24, null, i32 0, i32 0} ; [ DW_TAG_template_value_parameter ]
!187 = metadata !{i32 786480, null, metadata !"_AP_S2", metadata !113, i64 1, null, i32 0, i32 0} ; [ DW_TAG_template_value_parameter ]
!188 = metadata !{i32 786478, i32 0, metadata !156, metadata !"ap_int_base<24, true>", metadata !"ap_int_base<24, true>", metadata !"", metadata !152, i32 1454, metadata !189, i1 false, i1 false, i32 0, i32 0, null, i32 256, i1 false, null, metadata !185, i32 0, metadata !85, i32 1454} ; [ DW_TAG_subprogram ]
!189 = metadata !{i32 786453, i32 0, metadata !"", i32 0, i32 0, i64 0, i64 0, i64 0, i32 0, null, metadata !190, i32 0, i32 0} ; [ DW_TAG_subroutine_type ]
!190 = metadata !{null, metadata !179, metadata !191}
!191 = metadata !{i32 786448, null, null, null, i32 0, i64 0, i64 0, i64 0, i32 0, metadata !192} ; [ DW_TAG_reference_type ]
!192 = metadata !{i32 786470, null, metadata !"", null, i32 0, i64 0, i64 0, i64 0, i32 0, metadata !193} ; [ DW_TAG_const_type ]
!193 = metadata !{i32 786485, null, metadata !"", null, i32 0, i64 0, i64 0, i64 0, i32 0, metadata !156} ; [ DW_TAG_volatile_type ]
!194 = metadata !{i32 786478, i32 0, metadata !156, metadata !"ap_int_base", metadata !"ap_int_base", metadata !"", metadata !152, i32 1461, metadata !195, i1 false, i1 false, i32 0, i32 0, null, i32 384, i1 false, null, null, i32 0, metadata !85, i32 1461} ; [ DW_TAG_subprogram ]
!195 = metadata !{i32 786453, i32 0, metadata !"", i32 0, i32 0, i64 0, i64 0, i64 0, i32 0, null, metadata !196, i32 0, i32 0} ; [ DW_TAG_subroutine_type ]
!196 = metadata !{null, metadata !179, metadata !113}
!197 = metadata !{i32 786478, i32 0, metadata !156, metadata !"ap_int_base", metadata !"ap_int_base", metadata !"", metadata !152, i32 1462, metadata !198, i1 false, i1 false, i32 0, i32 0, null, i32 384, i1 false, null, null, i32 0, metadata !85, i32 1462} ; [ DW_TAG_subprogram ]
!198 = metadata !{i32 786453, i32 0, metadata !"", i32 0, i32 0, i64 0, i64 0, i64 0, i32 0, null, metadata !199, i32 0, i32 0} ; [ DW_TAG_subroutine_type ]
!199 = metadata !{null, metadata !179, metadata !200}
!200 = metadata !{i32 786468, null, metadata !"signed char", null, i32 0, i64 8, i64 8, i64 0, i32 0, i32 6} ; [ DW_TAG_base_type ]
!201 = metadata !{i32 786478, i32 0, metadata !156, metadata !"ap_int_base", metadata !"ap_int_base", metadata !"", metadata !152, i32 1463, metadata !202, i1 false, i1 false, i32 0, i32 0, null, i32 384, i1 false, null, null, i32 0, metadata !85, i32 1463} ; [ DW_TAG_subprogram ]
!202 = metadata !{i32 786453, i32 0, metadata !"", i32 0, i32 0, i64 0, i64 0, i64 0, i32 0, null, metadata !203, i32 0, i32 0} ; [ DW_TAG_subroutine_type ]
!203 = metadata !{null, metadata !179, metadata !204}
!204 = metadata !{i32 786468, null, metadata !"unsigned char", null, i32 0, i64 8, i64 8, i64 0, i32 0, i32 8} ; [ DW_TAG_base_type ]
!205 = metadata !{i32 786478, i32 0, metadata !156, metadata !"ap_int_base", metadata !"ap_int_base", metadata !"", metadata !152, i32 1464, metadata !206, i1 false, i1 false, i32 0, i32 0, null, i32 384, i1 false, null, null, i32 0, metadata !85, i32 1464} ; [ DW_TAG_subprogram ]
!206 = metadata !{i32 786453, i32 0, metadata !"", i32 0, i32 0, i64 0, i64 0, i64 0, i32 0, null, metadata !207, i32 0, i32 0} ; [ DW_TAG_subroutine_type ]
!207 = metadata !{null, metadata !179, metadata !208}
!208 = metadata !{i32 786468, null, metadata !"short", null, i32 0, i64 16, i64 16, i64 0, i32 0, i32 5} ; [ DW_TAG_base_type ]
!209 = metadata !{i32 786478, i32 0, metadata !156, metadata !"ap_int_base", metadata !"ap_int_base", metadata !"", metadata !152, i32 1465, metadata !210, i1 false, i1 false, i32 0, i32 0, null, i32 384, i1 false, null, null, i32 0, metadata !85, i32 1465} ; [ DW_TAG_subprogram ]
!210 = metadata !{i32 786453, i32 0, metadata !"", i32 0, i32 0, i64 0, i64 0, i64 0, i32 0, null, metadata !211, i32 0, i32 0} ; [ DW_TAG_subroutine_type ]
!211 = metadata !{null, metadata !179, metadata !212}
!212 = metadata !{i32 786468, null, metadata !"unsigned short", null, i32 0, i64 16, i64 16, i64 0, i32 0, i32 7} ; [ DW_TAG_base_type ]
!213 = metadata !{i32 786478, i32 0, metadata !156, metadata !"ap_int_base", metadata !"ap_int_base", metadata !"", metadata !152, i32 1466, metadata !214, i1 false, i1 false, i32 0, i32 0, null, i32 384, i1 false, null, null, i32 0, metadata !85, i32 1466} ; [ DW_TAG_subprogram ]
!214 = metadata !{i32 786453, i32 0, metadata !"", i32 0, i32 0, i64 0, i64 0, i64 0, i32 0, null, metadata !215, i32 0, i32 0} ; [ DW_TAG_subroutine_type ]
!215 = metadata !{null, metadata !179, metadata !80}
!216 = metadata !{i32 786478, i32 0, metadata !156, metadata !"ap_int_base", metadata !"ap_int_base", metadata !"", metadata !152, i32 1467, metadata !217, i1 false, i1 false, i32 0, i32 0, null, i32 384, i1 false, null, null, i32 0, metadata !85, i32 1467} ; [ DW_TAG_subprogram ]
!217 = metadata !{i32 786453, i32 0, metadata !"", i32 0, i32 0, i64 0, i64 0, i64 0, i32 0, null, metadata !218, i32 0, i32 0} ; [ DW_TAG_subroutine_type ]
!218 = metadata !{null, metadata !179, metadata !78}
!219 = metadata !{i32 786478, i32 0, metadata !156, metadata !"ap_int_base", metadata !"ap_int_base", metadata !"", metadata !152, i32 1468, metadata !220, i1 false, i1 false, i32 0, i32 0, null, i32 384, i1 false, null, null, i32 0, metadata !85, i32 1468} ; [ DW_TAG_subprogram ]
!220 = metadata !{i32 786453, i32 0, metadata !"", i32 0, i32 0, i64 0, i64 0, i64 0, i32 0, null, metadata !221, i32 0, i32 0} ; [ DW_TAG_subroutine_type ]
!221 = metadata !{null, metadata !179, metadata !222}
!222 = metadata !{i32 786468, null, metadata !"long int", null, i32 0, i64 64, i64 64, i64 0, i32 0, i32 5} ; [ DW_TAG_base_type ]
!223 = metadata !{i32 786478, i32 0, metadata !156, metadata !"ap_int_base", metadata !"ap_int_base", metadata !"", metadata !152, i32 1469, metadata !224, i1 false, i1 false, i32 0, i32 0, null, i32 384, i1 false, null, null, i32 0, metadata !85, i32 1469} ; [ DW_TAG_subprogram ]
!224 = metadata !{i32 786453, i32 0, metadata !"", i32 0, i32 0, i64 0, i64 0, i64 0, i32 0, null, metadata !225, i32 0, i32 0} ; [ DW_TAG_subroutine_type ]
!225 = metadata !{null, metadata !179, metadata !226}
!226 = metadata !{i32 786468, null, metadata !"long unsigned int", null, i32 0, i64 64, i64 64, i64 0, i32 0, i32 7} ; [ DW_TAG_base_type ]
!227 = metadata !{i32 786478, i32 0, metadata !156, metadata !"ap_int_base", metadata !"ap_int_base", metadata !"", metadata !152, i32 1470, metadata !228, i1 false, i1 false, i32 0, i32 0, null, i32 384, i1 false, null, null, i32 0, metadata !85, i32 1470} ; [ DW_TAG_subprogram ]
!228 = metadata !{i32 786453, i32 0, metadata !"", i32 0, i32 0, i64 0, i64 0, i64 0, i32 0, null, metadata !229, i32 0, i32 0} ; [ DW_TAG_subroutine_type ]
!229 = metadata !{null, metadata !179, metadata !230}
!230 = metadata !{i32 786454, null, metadata !"ap_slong", metadata !152, i32 112, i64 0, i64 0, i64 0, i32 0, metadata !231} ; [ DW_TAG_typedef ]
!231 = metadata !{i32 786468, null, metadata !"long long int", null, i32 0, i64 64, i64 64, i64 0, i32 0, i32 5} ; [ DW_TAG_base_type ]
!232 = metadata !{i32 786478, i32 0, metadata !156, metadata !"ap_int_base", metadata !"ap_int_base", metadata !"", metadata !152, i32 1471, metadata !233, i1 false, i1 false, i32 0, i32 0, null, i32 384, i1 false, null, null, i32 0, metadata !85, i32 1471} ; [ DW_TAG_subprogram ]
!233 = metadata !{i32 786453, i32 0, metadata !"", i32 0, i32 0, i64 0, i64 0, i64 0, i32 0, null, metadata !234, i32 0, i32 0} ; [ DW_TAG_subroutine_type ]
!234 = metadata !{null, metadata !179, metadata !235}
!235 = metadata !{i32 786454, null, metadata !"ap_ulong", metadata !152, i32 111, i64 0, i64 0, i64 0, i32 0, metadata !236} ; [ DW_TAG_typedef ]
!236 = metadata !{i32 786468, null, metadata !"long long unsigned int", null, i32 0, i64 64, i64 64, i64 0, i32 0, i32 7} ; [ DW_TAG_base_type ]
!237 = metadata !{i32 786478, i32 0, metadata !156, metadata !"ap_int_base", metadata !"ap_int_base", metadata !"", metadata !152, i32 1472, metadata !238, i1 false, i1 false, i32 0, i32 0, null, i32 384, i1 false, null, null, i32 0, metadata !85, i32 1472} ; [ DW_TAG_subprogram ]
!238 = metadata !{i32 786453, i32 0, metadata !"", i32 0, i32 0, i64 0, i64 0, i64 0, i32 0, null, metadata !239, i32 0, i32 0} ; [ DW_TAG_subroutine_type ]
!239 = metadata !{null, metadata !179, metadata !240}
!240 = metadata !{i32 786454, null, metadata !"half", metadata !152, i32 54, i64 0, i64 0, i64 0, i32 0, metadata !241} ; [ DW_TAG_typedef ]
!241 = metadata !{i32 786468, null, metadata !"half", null, i32 0, i64 16, i64 16, i64 0, i32 0, i32 4} ; [ DW_TAG_base_type ]
!242 = metadata !{i32 786478, i32 0, metadata !156, metadata !"ap_int_base", metadata !"ap_int_base", metadata !"", metadata !152, i32 1473, metadata !243, i1 false, i1 false, i32 0, i32 0, null, i32 384, i1 false, null, null, i32 0, metadata !85, i32 1473} ; [ DW_TAG_subprogram ]
!243 = metadata !{i32 786453, i32 0, metadata !"", i32 0, i32 0, i64 0, i64 0, i64 0, i32 0, null, metadata !244, i32 0, i32 0} ; [ DW_TAG_subroutine_type ]
!244 = metadata !{null, metadata !179, metadata !245}
!245 = metadata !{i32 786468, null, metadata !"float", null, i32 0, i64 32, i64 32, i64 0, i32 0, i32 4} ; [ DW_TAG_base_type ]
!246 = metadata !{i32 786478, i32 0, metadata !156, metadata !"ap_int_base", metadata !"ap_int_base", metadata !"", metadata !152, i32 1474, metadata !247, i1 false, i1 false, i32 0, i32 0, null, i32 384, i1 false, null, null, i32 0, metadata !85, i32 1474} ; [ DW_TAG_subprogram ]
!247 = metadata !{i32 786453, i32 0, metadata !"", i32 0, i32 0, i64 0, i64 0, i64 0, i32 0, null, metadata !248, i32 0, i32 0} ; [ DW_TAG_subroutine_type ]
!248 = metadata !{null, metadata !179, metadata !249}
!249 = metadata !{i32 786468, null, metadata !"double", null, i32 0, i64 64, i64 64, i64 0, i32 0, i32 4} ; [ DW_TAG_base_type ]
!250 = metadata !{i32 786478, i32 0, metadata !156, metadata !"ap_int_base", metadata !"ap_int_base", metadata !"", metadata !152, i32 1501, metadata !251, i1 false, i1 false, i32 0, i32 0, null, i32 256, i1 false, null, null, i32 0, metadata !85, i32 1501} ; [ DW_TAG_subprogram ]
!251 = metadata !{i32 786453, i32 0, metadata !"", i32 0, i32 0, i64 0, i64 0, i64 0, i32 0, null, metadata !252, i32 0, i32 0} ; [ DW_TAG_subroutine_type ]
!252 = metadata !{null, metadata !179, metadata !90}
!253 = metadata !{i32 786478, i32 0, metadata !156, metadata !"ap_int_base", metadata !"ap_int_base", metadata !"", metadata !152, i32 1508, metadata !254, i1 false, i1 false, i32 0, i32 0, null, i32 256, i1 false, null, null, i32 0, metadata !85, i32 1508} ; [ DW_TAG_subprogram ]
!254 = metadata !{i32 786453, i32 0, metadata !"", i32 0, i32 0, i64 0, i64 0, i64 0, i32 0, null, metadata !255, i32 0, i32 0} ; [ DW_TAG_subroutine_type ]
!255 = metadata !{null, metadata !179, metadata !90, metadata !200}
!256 = metadata !{i32 786478, i32 0, metadata !156, metadata !"read", metadata !"read", metadata !"_ZNV11ap_int_baseILi24ELb1ELb1EE4readEv", metadata !152, i32 1529, metadata !257, i1 false, i1 false, i32 0, i32 0, null, i32 256, i1 false, null, null, i32 0, metadata !85, i32 1529} ; [ DW_TAG_subprogram ]
!257 = metadata !{i32 786453, i32 0, metadata !"", i32 0, i32 0, i64 0, i64 0, i64 0, i32 0, null, metadata !258, i32 0, i32 0} ; [ DW_TAG_subroutine_type ]
!258 = metadata !{metadata !156, metadata !259}
!259 = metadata !{i32 786447, i32 0, metadata !"", i32 0, i32 0, i64 64, i64 64, i64 0, i32 64, metadata !193} ; [ DW_TAG_pointer_type ]
!260 = metadata !{i32 786478, i32 0, metadata !156, metadata !"write", metadata !"write", metadata !"_ZNV11ap_int_baseILi24ELb1ELb1EE5writeERKS0_", metadata !152, i32 1535, metadata !261, i1 false, i1 false, i32 0, i32 0, null, i32 256, i1 false, null, null, i32 0, metadata !85, i32 1535} ; [ DW_TAG_subprogram ]
!261 = metadata !{i32 786453, i32 0, metadata !"", i32 0, i32 0, i64 0, i64 0, i64 0, i32 0, null, metadata !262, i32 0, i32 0} ; [ DW_TAG_subroutine_type ]
!262 = metadata !{null, metadata !259, metadata !183}
!263 = metadata !{i32 786478, i32 0, metadata !156, metadata !"operator=", metadata !"operator=", metadata !"_ZNV11ap_int_baseILi24ELb1ELb1EEaSERVKS0_", metadata !152, i32 1547, metadata !264, i1 false, i1 false, i32 0, i32 0, null, i32 256, i1 false, null, null, i32 0, metadata !85, i32 1547} ; [ DW_TAG_subprogram ]
!264 = metadata !{i32 786453, i32 0, metadata !"", i32 0, i32 0, i64 0, i64 0, i64 0, i32 0, null, metadata !265, i32 0, i32 0} ; [ DW_TAG_subroutine_type ]
!265 = metadata !{null, metadata !259, metadata !191}
!266 = metadata !{i32 786478, i32 0, metadata !156, metadata !"operator=", metadata !"operator=", metadata !"_ZNV11ap_int_baseILi24ELb1ELb1EEaSERKS0_", metadata !152, i32 1556, metadata !261, i1 false, i1 false, i32 0, i32 0, null, i32 256, i1 false, null, null, i32 0, metadata !85, i32 1556} ; [ DW_TAG_subprogram ]
!267 = metadata !{i32 786478, i32 0, metadata !156, metadata !"operator=", metadata !"operator=", metadata !"_ZN11ap_int_baseILi24ELb1ELb1EEaSERVKS0_", metadata !152, i32 1579, metadata !268, i1 false, i1 false, i32 0, i32 0, null, i32 256, i1 false, null, null, i32 0, metadata !85, i32 1579} ; [ DW_TAG_subprogram ]
!268 = metadata !{i32 786453, i32 0, metadata !"", i32 0, i32 0, i64 0, i64 0, i64 0, i32 0, null, metadata !269, i32 0, i32 0} ; [ DW_TAG_subroutine_type ]
!269 = metadata !{metadata !270, metadata !179, metadata !191}
!270 = metadata !{i32 786448, null, null, null, i32 0, i64 0, i64 0, i64 0, i32 0, metadata !156} ; [ DW_TAG_reference_type ]
!271 = metadata !{i32 786478, i32 0, metadata !156, metadata !"operator=", metadata !"operator=", metadata !"_ZN11ap_int_baseILi24ELb1ELb1EEaSERKS0_", metadata !152, i32 1584, metadata !272, i1 false, i1 false, i32 0, i32 0, null, i32 256, i1 false, null, null, i32 0, metadata !85, i32 1584} ; [ DW_TAG_subprogram ]
!272 = metadata !{i32 786453, i32 0, metadata !"", i32 0, i32 0, i64 0, i64 0, i64 0, i32 0, null, metadata !273, i32 0, i32 0} ; [ DW_TAG_subroutine_type ]
!273 = metadata !{metadata !270, metadata !179, metadata !183}
!274 = metadata !{i32 786478, i32 0, metadata !156, metadata !"operator=", metadata !"operator=", metadata !"_ZN11ap_int_baseILi24ELb1ELb1EEaSEPKc", metadata !152, i32 1588, metadata !275, i1 false, i1 false, i32 0, i32 0, null, i32 256, i1 false, null, null, i32 0, metadata !85, i32 1588} ; [ DW_TAG_subprogram ]
!275 = metadata !{i32 786453, i32 0, metadata !"", i32 0, i32 0, i64 0, i64 0, i64 0, i32 0, null, metadata !276, i32 0, i32 0} ; [ DW_TAG_subroutine_type ]
!276 = metadata !{metadata !270, metadata !179, metadata !90}
!277 = metadata !{i32 786478, i32 0, metadata !156, metadata !"set", metadata !"set", metadata !"_ZN11ap_int_baseILi24ELb1ELb1EE3setEPKca", metadata !152, i32 1596, metadata !278, i1 false, i1 false, i32 0, i32 0, null, i32 256, i1 false, null, null, i32 0, metadata !85, i32 1596} ; [ DW_TAG_subprogram ]
!278 = metadata !{i32 786453, i32 0, metadata !"", i32 0, i32 0, i64 0, i64 0, i64 0, i32 0, null, metadata !279, i32 0, i32 0} ; [ DW_TAG_subroutine_type ]
!279 = metadata !{metadata !270, metadata !179, metadata !90, metadata !200}
!280 = metadata !{i32 786478, i32 0, metadata !156, metadata !"operator=", metadata !"operator=", metadata !"_ZN11ap_int_baseILi24ELb1ELb1EEaSEa", metadata !152, i32 1610, metadata !281, i1 false, i1 false, i32 0, i32 0, null, i32 256, i1 false, null, null, i32 0, metadata !85, i32 1610} ; [ DW_TAG_subprogram ]
!281 = metadata !{i32 786453, i32 0, metadata !"", i32 0, i32 0, i64 0, i64 0, i64 0, i32 0, null, metadata !282, i32 0, i32 0} ; [ DW_TAG_subroutine_type ]
!282 = metadata !{metadata !270, metadata !179, metadata !200}
!283 = metadata !{i32 786478, i32 0, metadata !156, metadata !"operator=", metadata !"operator=", metadata !"_ZN11ap_int_baseILi24ELb1ELb1EEaSEh", metadata !152, i32 1611, metadata !284, i1 false, i1 false, i32 0, i32 0, null, i32 256, i1 false, null, null, i32 0, metadata !85, i32 1611} ; [ DW_TAG_subprogram ]
!284 = metadata !{i32 786453, i32 0, metadata !"", i32 0, i32 0, i64 0, i64 0, i64 0, i32 0, null, metadata !285, i32 0, i32 0} ; [ DW_TAG_subroutine_type ]
!285 = metadata !{metadata !270, metadata !179, metadata !204}
!286 = metadata !{i32 786478, i32 0, metadata !156, metadata !"operator=", metadata !"operator=", metadata !"_ZN11ap_int_baseILi24ELb1ELb1EEaSEs", metadata !152, i32 1612, metadata !287, i1 false, i1 false, i32 0, i32 0, null, i32 256, i1 false, null, null, i32 0, metadata !85, i32 1612} ; [ DW_TAG_subprogram ]
!287 = metadata !{i32 786453, i32 0, metadata !"", i32 0, i32 0, i64 0, i64 0, i64 0, i32 0, null, metadata !288, i32 0, i32 0} ; [ DW_TAG_subroutine_type ]
!288 = metadata !{metadata !270, metadata !179, metadata !208}
!289 = metadata !{i32 786478, i32 0, metadata !156, metadata !"operator=", metadata !"operator=", metadata !"_ZN11ap_int_baseILi24ELb1ELb1EEaSEt", metadata !152, i32 1613, metadata !290, i1 false, i1 false, i32 0, i32 0, null, i32 256, i1 false, null, null, i32 0, metadata !85, i32 1613} ; [ DW_TAG_subprogram ]
!290 = metadata !{i32 786453, i32 0, metadata !"", i32 0, i32 0, i64 0, i64 0, i64 0, i32 0, null, metadata !291, i32 0, i32 0} ; [ DW_TAG_subroutine_type ]
!291 = metadata !{metadata !270, metadata !179, metadata !212}
!292 = metadata !{i32 786478, i32 0, metadata !156, metadata !"operator=", metadata !"operator=", metadata !"_ZN11ap_int_baseILi24ELb1ELb1EEaSEi", metadata !152, i32 1614, metadata !293, i1 false, i1 false, i32 0, i32 0, null, i32 256, i1 false, null, null, i32 0, metadata !85, i32 1614} ; [ DW_TAG_subprogram ]
!293 = metadata !{i32 786453, i32 0, metadata !"", i32 0, i32 0, i64 0, i64 0, i64 0, i32 0, null, metadata !294, i32 0, i32 0} ; [ DW_TAG_subroutine_type ]
!294 = metadata !{metadata !270, metadata !179, metadata !80}
!295 = metadata !{i32 786478, i32 0, metadata !156, metadata !"operator=", metadata !"operator=", metadata !"_ZN11ap_int_baseILi24ELb1ELb1EEaSEj", metadata !152, i32 1615, metadata !296, i1 false, i1 false, i32 0, i32 0, null, i32 256, i1 false, null, null, i32 0, metadata !85, i32 1615} ; [ DW_TAG_subprogram ]
!296 = metadata !{i32 786453, i32 0, metadata !"", i32 0, i32 0, i64 0, i64 0, i64 0, i32 0, null, metadata !297, i32 0, i32 0} ; [ DW_TAG_subroutine_type ]
!297 = metadata !{metadata !270, metadata !179, metadata !78}
!298 = metadata !{i32 786478, i32 0, metadata !156, metadata !"operator=", metadata !"operator=", metadata !"_ZN11ap_int_baseILi24ELb1ELb1EEaSEx", metadata !152, i32 1616, metadata !299, i1 false, i1 false, i32 0, i32 0, null, i32 256, i1 false, null, null, i32 0, metadata !85, i32 1616} ; [ DW_TAG_subprogram ]
!299 = metadata !{i32 786453, i32 0, metadata !"", i32 0, i32 0, i64 0, i64 0, i64 0, i32 0, null, metadata !300, i32 0, i32 0} ; [ DW_TAG_subroutine_type ]
!300 = metadata !{metadata !270, metadata !179, metadata !230}
!301 = metadata !{i32 786478, i32 0, metadata !156, metadata !"operator=", metadata !"operator=", metadata !"_ZN11ap_int_baseILi24ELb1ELb1EEaSEy", metadata !152, i32 1617, metadata !302, i1 false, i1 false, i32 0, i32 0, null, i32 256, i1 false, null, null, i32 0, metadata !85, i32 1617} ; [ DW_TAG_subprogram ]
!302 = metadata !{i32 786453, i32 0, metadata !"", i32 0, i32 0, i64 0, i64 0, i64 0, i32 0, null, metadata !303, i32 0, i32 0} ; [ DW_TAG_subroutine_type ]
!303 = metadata !{metadata !270, metadata !179, metadata !235}
!304 = metadata !{i32 786478, i32 0, metadata !156, metadata !"operator int", metadata !"operator int", metadata !"_ZNK11ap_int_baseILi24ELb1ELb1EEcviEv", metadata !152, i32 1655, metadata !153, i1 false, i1 false, i32 0, i32 0, null, i32 256, i1 false, null, null, i32 0, metadata !85, i32 1655} ; [ DW_TAG_subprogram ]
!305 = metadata !{i32 786478, i32 0, metadata !156, metadata !"to_bool", metadata !"to_bool", metadata !"_ZNK11ap_int_baseILi24ELb1ELb1EE7to_boolEv", metadata !152, i32 1661, metadata !306, i1 false, i1 false, i32 0, i32 0, null, i32 256, i1 false, null, null, i32 0, metadata !85, i32 1661} ; [ DW_TAG_subprogram ]
!306 = metadata !{i32 786453, i32 0, metadata !"", i32 0, i32 0, i64 0, i64 0, i64 0, i32 0, null, metadata !307, i32 0, i32 0} ; [ DW_TAG_subroutine_type ]
!307 = metadata !{metadata !113, metadata !308}
!308 = metadata !{i32 786447, i32 0, metadata !"", i32 0, i32 0, i64 64, i64 64, i64 0, i32 64, metadata !184} ; [ DW_TAG_pointer_type ]
!309 = metadata !{i32 786478, i32 0, metadata !156, metadata !"to_uchar", metadata !"to_uchar", metadata !"_ZNK11ap_int_baseILi24ELb1ELb1EE8to_ucharEv", metadata !152, i32 1662, metadata !310, i1 false, i1 false, i32 0, i32 0, null, i32 256, i1 false, null, null, i32 0, metadata !85, i32 1662} ; [ DW_TAG_subprogram ]
!310 = metadata !{i32 786453, i32 0, metadata !"", i32 0, i32 0, i64 0, i64 0, i64 0, i32 0, null, metadata !311, i32 0, i32 0} ; [ DW_TAG_subroutine_type ]
!311 = metadata !{metadata !204, metadata !308}
!312 = metadata !{i32 786478, i32 0, metadata !156, metadata !"to_char", metadata !"to_char", metadata !"_ZNK11ap_int_baseILi24ELb1ELb1EE7to_charEv", metadata !152, i32 1663, metadata !313, i1 false, i1 false, i32 0, i32 0, null, i32 256, i1 false, null, null, i32 0, metadata !85, i32 1663} ; [ DW_TAG_subprogram ]
!313 = metadata !{i32 786453, i32 0, metadata !"", i32 0, i32 0, i64 0, i64 0, i64 0, i32 0, null, metadata !314, i32 0, i32 0} ; [ DW_TAG_subroutine_type ]
!314 = metadata !{metadata !200, metadata !308}
!315 = metadata !{i32 786478, i32 0, metadata !156, metadata !"to_ushort", metadata !"to_ushort", metadata !"_ZNK11ap_int_baseILi24ELb1ELb1EE9to_ushortEv", metadata !152, i32 1664, metadata !316, i1 false, i1 false, i32 0, i32 0, null, i32 256, i1 false, null, null, i32 0, metadata !85, i32 1664} ; [ DW_TAG_subprogram ]
!316 = metadata !{i32 786453, i32 0, metadata !"", i32 0, i32 0, i64 0, i64 0, i64 0, i32 0, null, metadata !317, i32 0, i32 0} ; [ DW_TAG_subroutine_type ]
!317 = metadata !{metadata !212, metadata !308}
!318 = metadata !{i32 786478, i32 0, metadata !156, metadata !"to_short", metadata !"to_short", metadata !"_ZNK11ap_int_baseILi24ELb1ELb1EE8to_shortEv", metadata !152, i32 1665, metadata !319, i1 false, i1 false, i32 0, i32 0, null, i32 256, i1 false, null, null, i32 0, metadata !85, i32 1665} ; [ DW_TAG_subprogram ]
!319 = metadata !{i32 786453, i32 0, metadata !"", i32 0, i32 0, i64 0, i64 0, i64 0, i32 0, null, metadata !320, i32 0, i32 0} ; [ DW_TAG_subroutine_type ]
!320 = metadata !{metadata !208, metadata !308}
!321 = metadata !{i32 786478, i32 0, metadata !156, metadata !"to_int", metadata !"to_int", metadata !"_ZNK11ap_int_baseILi24ELb1ELb1EE6to_intEv", metadata !152, i32 1666, metadata !322, i1 false, i1 false, i32 0, i32 0, null, i32 256, i1 false, null, null, i32 0, metadata !85, i32 1666} ; [ DW_TAG_subprogram ]
!322 = metadata !{i32 786453, i32 0, metadata !"", i32 0, i32 0, i64 0, i64 0, i64 0, i32 0, null, metadata !323, i32 0, i32 0} ; [ DW_TAG_subroutine_type ]
!323 = metadata !{metadata !80, metadata !308}
!324 = metadata !{i32 786478, i32 0, metadata !156, metadata !"to_uint", metadata !"to_uint", metadata !"_ZNK11ap_int_baseILi24ELb1ELb1EE7to_uintEv", metadata !152, i32 1667, metadata !325, i1 false, i1 false, i32 0, i32 0, null, i32 256, i1 false, null, null, i32 0, metadata !85, i32 1667} ; [ DW_TAG_subprogram ]
!325 = metadata !{i32 786453, i32 0, metadata !"", i32 0, i32 0, i64 0, i64 0, i64 0, i32 0, null, metadata !326, i32 0, i32 0} ; [ DW_TAG_subroutine_type ]
!326 = metadata !{metadata !78, metadata !308}
!327 = metadata !{i32 786478, i32 0, metadata !156, metadata !"to_long", metadata !"to_long", metadata !"_ZNK11ap_int_baseILi24ELb1ELb1EE7to_longEv", metadata !152, i32 1668, metadata !328, i1 false, i1 false, i32 0, i32 0, null, i32 256, i1 false, null, null, i32 0, metadata !85, i32 1668} ; [ DW_TAG_subprogram ]
!328 = metadata !{i32 786453, i32 0, metadata !"", i32 0, i32 0, i64 0, i64 0, i64 0, i32 0, null, metadata !329, i32 0, i32 0} ; [ DW_TAG_subroutine_type ]
!329 = metadata !{metadata !222, metadata !308}
!330 = metadata !{i32 786478, i32 0, metadata !156, metadata !"to_ulong", metadata !"to_ulong", metadata !"_ZNK11ap_int_baseILi24ELb1ELb1EE8to_ulongEv", metadata !152, i32 1669, metadata !331, i1 false, i1 false, i32 0, i32 0, null, i32 256, i1 false, null, null, i32 0, metadata !85, i32 1669} ; [ DW_TAG_subprogram ]
!331 = metadata !{i32 786453, i32 0, metadata !"", i32 0, i32 0, i64 0, i64 0, i64 0, i32 0, null, metadata !332, i32 0, i32 0} ; [ DW_TAG_subroutine_type ]
!332 = metadata !{metadata !226, metadata !308}
!333 = metadata !{i32 786478, i32 0, metadata !156, metadata !"to_int64", metadata !"to_int64", metadata !"_ZNK11ap_int_baseILi24ELb1ELb1EE8to_int64Ev", metadata !152, i32 1670, metadata !334, i1 false, i1 false, i32 0, i32 0, null, i32 256, i1 false, null, null, i32 0, metadata !85, i32 1670} ; [ DW_TAG_subprogram ]
!334 = metadata !{i32 786453, i32 0, metadata !"", i32 0, i32 0, i64 0, i64 0, i64 0, i32 0, null, metadata !335, i32 0, i32 0} ; [ DW_TAG_subroutine_type ]
!335 = metadata !{metadata !230, metadata !308}
!336 = metadata !{i32 786478, i32 0, metadata !156, metadata !"to_uint64", metadata !"to_uint64", metadata !"_ZNK11ap_int_baseILi24ELb1ELb1EE9to_uint64Ev", metadata !152, i32 1671, metadata !337, i1 false, i1 false, i32 0, i32 0, null, i32 256, i1 false, null, null, i32 0, metadata !85, i32 1671} ; [ DW_TAG_subprogram ]
!337 = metadata !{i32 786453, i32 0, metadata !"", i32 0, i32 0, i64 0, i64 0, i64 0, i32 0, null, metadata !338, i32 0, i32 0} ; [ DW_TAG_subroutine_type ]
!338 = metadata !{metadata !235, metadata !308}
!339 = metadata !{i32 786478, i32 0, metadata !156, metadata !"to_double", metadata !"to_double", metadata !"_ZNK11ap_int_baseILi24ELb1ELb1EE9to_doubleEv", metadata !152, i32 1672, metadata !340, i1 false, i1 false, i32 0, i32 0, null, i32 256, i1 false, null, null, i32 0, metadata !85, i32 1672} ; [ DW_TAG_subprogram ]
!340 = metadata !{i32 786453, i32 0, metadata !"", i32 0, i32 0, i64 0, i64 0, i64 0, i32 0, null, metadata !341, i32 0, i32 0} ; [ DW_TAG_subroutine_type ]
!341 = metadata !{metadata !249, metadata !308}
!342 = metadata !{i32 786478, i32 0, metadata !156, metadata !"length", metadata !"length", metadata !"_ZNK11ap_int_baseILi24ELb1ELb1EE6lengthEv", metadata !152, i32 1686, metadata !322, i1 false, i1 false, i32 0, i32 0, null, i32 256, i1 false, null, null, i32 0, metadata !85, i32 1686} ; [ DW_TAG_subprogram ]
!343 = metadata !{i32 786478, i32 0, metadata !156, metadata !"length", metadata !"length", metadata !"_ZNVK11ap_int_baseILi24ELb1ELb1EE6lengthEv", metadata !152, i32 1687, metadata !344, i1 false, i1 false, i32 0, i32 0, null, i32 256, i1 false, null, null, i32 0, metadata !85, i32 1687} ; [ DW_TAG_subprogram ]
!344 = metadata !{i32 786453, i32 0, metadata !"", i32 0, i32 0, i64 0, i64 0, i64 0, i32 0, null, metadata !345, i32 0, i32 0} ; [ DW_TAG_subroutine_type ]
!345 = metadata !{metadata !80, metadata !346}
!346 = metadata !{i32 786447, i32 0, metadata !"", i32 0, i32 0, i64 64, i64 64, i64 0, i32 64, metadata !192} ; [ DW_TAG_pointer_type ]
!347 = metadata !{i32 786478, i32 0, metadata !156, metadata !"reverse", metadata !"reverse", metadata !"_ZN11ap_int_baseILi24ELb1ELb1EE7reverseEv", metadata !152, i32 1692, metadata !348, i1 false, i1 false, i32 0, i32 0, null, i32 256, i1 false, null, null, i32 0, metadata !85, i32 1692} ; [ DW_TAG_subprogram ]
!348 = metadata !{i32 786453, i32 0, metadata !"", i32 0, i32 0, i64 0, i64 0, i64 0, i32 0, null, metadata !349, i32 0, i32 0} ; [ DW_TAG_subroutine_type ]
!349 = metadata !{metadata !270, metadata !179}
!350 = metadata !{i32 786478, i32 0, metadata !156, metadata !"iszero", metadata !"iszero", metadata !"_ZNK11ap_int_baseILi24ELb1ELb1EE6iszeroEv", metadata !152, i32 1698, metadata !306, i1 false, i1 false, i32 0, i32 0, null, i32 256, i1 false, null, null, i32 0, metadata !85, i32 1698} ; [ DW_TAG_subprogram ]
!351 = metadata !{i32 786478, i32 0, metadata !156, metadata !"is_zero", metadata !"is_zero", metadata !"_ZNK11ap_int_baseILi24ELb1ELb1EE7is_zeroEv", metadata !152, i32 1703, metadata !306, i1 false, i1 false, i32 0, i32 0, null, i32 256, i1 false, null, null, i32 0, metadata !85, i32 1703} ; [ DW_TAG_subprogram ]
!352 = metadata !{i32 786478, i32 0, metadata !156, metadata !"sign", metadata !"sign", metadata !"_ZNK11ap_int_baseILi24ELb1ELb1EE4signEv", metadata !152, i32 1708, metadata !306, i1 false, i1 false, i32 0, i32 0, null, i32 256, i1 false, null, null, i32 0, metadata !85, i32 1708} ; [ DW_TAG_subprogram ]
!353 = metadata !{i32 786478, i32 0, metadata !156, metadata !"clear", metadata !"clear", metadata !"_ZN11ap_int_baseILi24ELb1ELb1EE5clearEi", metadata !152, i32 1716, metadata !214, i1 false, i1 false, i32 0, i32 0, null, i32 256, i1 false, null, null, i32 0, metadata !85, i32 1716} ; [ DW_TAG_subprogram ]
!354 = metadata !{i32 786478, i32 0, metadata !156, metadata !"invert", metadata !"invert", metadata !"_ZN11ap_int_baseILi24ELb1ELb1EE6invertEi", metadata !152, i32 1722, metadata !214, i1 false, i1 false, i32 0, i32 0, null, i32 256, i1 false, null, null, i32 0, metadata !85, i32 1722} ; [ DW_TAG_subprogram ]
!355 = metadata !{i32 786478, i32 0, metadata !156, metadata !"test", metadata !"test", metadata !"_ZNK11ap_int_baseILi24ELb1ELb1EE4testEi", metadata !152, i32 1730, metadata !356, i1 false, i1 false, i32 0, i32 0, null, i32 256, i1 false, null, null, i32 0, metadata !85, i32 1730} ; [ DW_TAG_subprogram ]
!356 = metadata !{i32 786453, i32 0, metadata !"", i32 0, i32 0, i64 0, i64 0, i64 0, i32 0, null, metadata !357, i32 0, i32 0} ; [ DW_TAG_subroutine_type ]
!357 = metadata !{metadata !113, metadata !308, metadata !80}
!358 = metadata !{i32 786478, i32 0, metadata !156, metadata !"set", metadata !"set", metadata !"_ZN11ap_int_baseILi24ELb1ELb1EE3setEi", metadata !152, i32 1736, metadata !214, i1 false, i1 false, i32 0, i32 0, null, i32 256, i1 false, null, null, i32 0, metadata !85, i32 1736} ; [ DW_TAG_subprogram ]
!359 = metadata !{i32 786478, i32 0, metadata !156, metadata !"set", metadata !"set", metadata !"_ZN11ap_int_baseILi24ELb1ELb1EE3setEib", metadata !152, i32 1742, metadata !360, i1 false, i1 false, i32 0, i32 0, null, i32 256, i1 false, null, null, i32 0, metadata !85, i32 1742} ; [ DW_TAG_subprogram ]
!360 = metadata !{i32 786453, i32 0, metadata !"", i32 0, i32 0, i64 0, i64 0, i64 0, i32 0, null, metadata !361, i32 0, i32 0} ; [ DW_TAG_subroutine_type ]
!361 = metadata !{null, metadata !179, metadata !80, metadata !113}
!362 = metadata !{i32 786478, i32 0, metadata !156, metadata !"lrotate", metadata !"lrotate", metadata !"_ZN11ap_int_baseILi24ELb1ELb1EE7lrotateEi", metadata !152, i32 1749, metadata !214, i1 false, i1 false, i32 0, i32 0, null, i32 256, i1 false, null, null, i32 0, metadata !85, i32 1749} ; [ DW_TAG_subprogram ]
!363 = metadata !{i32 786478, i32 0, metadata !156, metadata !"rrotate", metadata !"rrotate", metadata !"_ZN11ap_int_baseILi24ELb1ELb1EE7rrotateEi", metadata !152, i32 1758, metadata !214, i1 false, i1 false, i32 0, i32 0, null, i32 256, i1 false, null, null, i32 0, metadata !85, i32 1758} ; [ DW_TAG_subprogram ]
!364 = metadata !{i32 786478, i32 0, metadata !156, metadata !"set_bit", metadata !"set_bit", metadata !"_ZN11ap_int_baseILi24ELb1ELb1EE7set_bitEib", metadata !152, i32 1766, metadata !360, i1 false, i1 false, i32 0, i32 0, null, i32 256, i1 false, null, null, i32 0, metadata !85, i32 1766} ; [ DW_TAG_subprogram ]
!365 = metadata !{i32 786478, i32 0, metadata !156, metadata !"get_bit", metadata !"get_bit", metadata !"_ZNK11ap_int_baseILi24ELb1ELb1EE7get_bitEi", metadata !152, i32 1771, metadata !356, i1 false, i1 false, i32 0, i32 0, null, i32 256, i1 false, null, null, i32 0, metadata !85, i32 1771} ; [ DW_TAG_subprogram ]
!366 = metadata !{i32 786478, i32 0, metadata !156, metadata !"b_not", metadata !"b_not", metadata !"_ZN11ap_int_baseILi24ELb1ELb1EE5b_notEv", metadata !152, i32 1776, metadata !177, i1 false, i1 false, i32 0, i32 0, null, i32 256, i1 false, null, null, i32 0, metadata !85, i32 1776} ; [ DW_TAG_subprogram ]
!367 = metadata !{i32 786478, i32 0, metadata !156, metadata !"countLeadingZeros", metadata !"countLeadingZeros", metadata !"_ZN11ap_int_baseILi24ELb1ELb1EE17countLeadingZerosEv", metadata !152, i32 1783, metadata !368, i1 false, i1 false, i32 0, i32 0, null, i32 256, i1 false, null, null, i32 0, metadata !85, i32 1783} ; [ DW_TAG_subprogram ]
!368 = metadata !{i32 786453, i32 0, metadata !"", i32 0, i32 0, i64 0, i64 0, i64 0, i32 0, null, metadata !369, i32 0, i32 0} ; [ DW_TAG_subroutine_type ]
!369 = metadata !{metadata !80, metadata !179}
!370 = metadata !{i32 786478, i32 0, metadata !156, metadata !"operator++", metadata !"operator++", metadata !"_ZN11ap_int_baseILi24ELb1ELb1EEppEv", metadata !152, i32 1840, metadata !348, i1 false, i1 false, i32 0, i32 0, null, i32 256, i1 false, null, null, i32 0, metadata !85, i32 1840} ; [ DW_TAG_subprogram ]
!371 = metadata !{i32 786478, i32 0, metadata !156, metadata !"operator--", metadata !"operator--", metadata !"_ZN11ap_int_baseILi24ELb1ELb1EEmmEv", metadata !152, i32 1844, metadata !348, i1 false, i1 false, i32 0, i32 0, null, i32 256, i1 false, null, null, i32 0, metadata !85, i32 1844} ; [ DW_TAG_subprogram ]
!372 = metadata !{i32 786478, i32 0, metadata !156, metadata !"operator++", metadata !"operator++", metadata !"_ZN11ap_int_baseILi24ELb1ELb1EEppEi", metadata !152, i32 1852, metadata !373, i1 false, i1 false, i32 0, i32 0, null, i32 256, i1 false, null, null, i32 0, metadata !85, i32 1852} ; [ DW_TAG_subprogram ]
!373 = metadata !{i32 786453, i32 0, metadata !"", i32 0, i32 0, i64 0, i64 0, i64 0, i32 0, null, metadata !374, i32 0, i32 0} ; [ DW_TAG_subroutine_type ]
!374 = metadata !{metadata !184, metadata !179, metadata !80}
!375 = metadata !{i32 786478, i32 0, metadata !156, metadata !"operator--", metadata !"operator--", metadata !"_ZN11ap_int_baseILi24ELb1ELb1EEmmEi", metadata !152, i32 1857, metadata !373, i1 false, i1 false, i32 0, i32 0, null, i32 256, i1 false, null, null, i32 0, metadata !85, i32 1857} ; [ DW_TAG_subprogram ]
!376 = metadata !{i32 786478, i32 0, metadata !156, metadata !"operator+", metadata !"operator+", metadata !"_ZNK11ap_int_baseILi24ELb1ELb1EEpsEv", metadata !152, i32 1866, metadata !377, i1 false, i1 false, i32 0, i32 0, null, i32 256, i1 false, null, null, i32 0, metadata !85, i32 1866} ; [ DW_TAG_subprogram ]
!377 = metadata !{i32 786453, i32 0, metadata !"", i32 0, i32 0, i64 0, i64 0, i64 0, i32 0, null, metadata !378, i32 0, i32 0} ; [ DW_TAG_subroutine_type ]
!378 = metadata !{metadata !156, metadata !308}
!379 = metadata !{i32 786478, i32 0, metadata !156, metadata !"operator!", metadata !"operator!", metadata !"_ZNK11ap_int_baseILi24ELb1ELb1EEntEv", metadata !152, i32 1872, metadata !306, i1 false, i1 false, i32 0, i32 0, null, i32 256, i1 false, null, null, i32 0, metadata !85, i32 1872} ; [ DW_TAG_subprogram ]
!380 = metadata !{i32 786478, i32 0, metadata !156, metadata !"operator-", metadata !"operator-", metadata !"_ZNK11ap_int_baseILi24ELb1ELb1EEngEv", metadata !152, i32 1877, metadata !381, i1 false, i1 false, i32 0, i32 0, null, i32 256, i1 false, null, null, i32 0, metadata !85, i32 1877} ; [ DW_TAG_subprogram ]
!381 = metadata !{i32 786453, i32 0, metadata !"", i32 0, i32 0, i64 0, i64 0, i64 0, i32 0, null, metadata !382, i32 0, i32 0} ; [ DW_TAG_subroutine_type ]
!382 = metadata !{metadata !383, metadata !308}
!383 = metadata !{i32 786434, null, metadata !"ap_int_base<25, true, true>", metadata !152, i32 651, i32 0, i32 0, i32 0, i32 4, null, null, i32 0} ; [ DW_TAG_class_type ]
!384 = metadata !{i32 786478, i32 0, metadata !156, metadata !"range", metadata !"range", metadata !"_ZN11ap_int_baseILi24ELb1ELb1EE5rangeEii", metadata !152, i32 2007, metadata !385, i1 false, i1 false, i32 0, i32 0, null, i32 256, i1 false, null, null, i32 0, metadata !85, i32 2007} ; [ DW_TAG_subprogram ]
!385 = metadata !{i32 786453, i32 0, metadata !"", i32 0, i32 0, i64 0, i64 0, i64 0, i32 0, null, metadata !386, i32 0, i32 0} ; [ DW_TAG_subroutine_type ]
!386 = metadata !{metadata !387, metadata !179, metadata !80, metadata !80}
!387 = metadata !{i32 786434, null, metadata !"ap_range_ref<24, true>", metadata !152, i32 924, i32 0, i32 0, i32 0, i32 4, null, null, i32 0} ; [ DW_TAG_class_type ]
!388 = metadata !{i32 786478, i32 0, metadata !156, metadata !"operator()", metadata !"operator()", metadata !"_ZN11ap_int_baseILi24ELb1ELb1EEclEii", metadata !152, i32 2013, metadata !385, i1 false, i1 false, i32 0, i32 0, null, i32 256, i1 false, null, null, i32 0, metadata !85, i32 2013} ; [ DW_TAG_subprogram ]
!389 = metadata !{i32 786478, i32 0, metadata !156, metadata !"range", metadata !"range", metadata !"_ZNK11ap_int_baseILi24ELb1ELb1EE5rangeEii", metadata !152, i32 2019, metadata !390, i1 false, i1 false, i32 0, i32 0, null, i32 256, i1 false, null, null, i32 0, metadata !85, i32 2019} ; [ DW_TAG_subprogram ]
!390 = metadata !{i32 786453, i32 0, metadata !"", i32 0, i32 0, i64 0, i64 0, i64 0, i32 0, null, metadata !391, i32 0, i32 0} ; [ DW_TAG_subroutine_type ]
!391 = metadata !{metadata !387, metadata !308, metadata !80, metadata !80}
!392 = metadata !{i32 786478, i32 0, metadata !156, metadata !"operator()", metadata !"operator()", metadata !"_ZNK11ap_int_baseILi24ELb1ELb1EEclEii", metadata !152, i32 2025, metadata !390, i1 false, i1 false, i32 0, i32 0, null, i32 256, i1 false, null, null, i32 0, metadata !85, i32 2025} ; [ DW_TAG_subprogram ]
!393 = metadata !{i32 786478, i32 0, metadata !156, metadata !"operator[]", metadata !"operator[]", metadata !"_ZN11ap_int_baseILi24ELb1ELb1EEixEi", metadata !152, i32 2044, metadata !394, i1 false, i1 false, i32 0, i32 0, null, i32 256, i1 false, null, null, i32 0, metadata !85, i32 2044} ; [ DW_TAG_subprogram ]
!394 = metadata !{i32 786453, i32 0, metadata !"", i32 0, i32 0, i64 0, i64 0, i64 0, i32 0, null, metadata !395, i32 0, i32 0} ; [ DW_TAG_subroutine_type ]
!395 = metadata !{metadata !396, metadata !179, metadata !80}
!396 = metadata !{i32 786434, null, metadata !"ap_bit_ref<24, true>", metadata !152, i32 1194, i32 0, i32 0, i32 0, i32 4, null, null, i32 0} ; [ DW_TAG_class_type ]
!397 = metadata !{i32 786478, i32 0, metadata !156, metadata !"operator[]", metadata !"operator[]", metadata !"_ZNK11ap_int_baseILi24ELb1ELb1EEixEi", metadata !152, i32 2058, metadata !356, i1 false, i1 false, i32 0, i32 0, null, i32 256, i1 false, null, null, i32 0, metadata !85, i32 2058} ; [ DW_TAG_subprogram ]
!398 = metadata !{i32 786478, i32 0, metadata !156, metadata !"bit", metadata !"bit", metadata !"_ZN11ap_int_baseILi24ELb1ELb1EE3bitEi", metadata !152, i32 2072, metadata !394, i1 false, i1 false, i32 0, i32 0, null, i32 256, i1 false, null, null, i32 0, metadata !85, i32 2072} ; [ DW_TAG_subprogram ]
!399 = metadata !{i32 786478, i32 0, metadata !156, metadata !"bit", metadata !"bit", metadata !"_ZNK11ap_int_baseILi24ELb1ELb1EE3bitEi", metadata !152, i32 2086, metadata !356, i1 false, i1 false, i32 0, i32 0, null, i32 256, i1 false, null, null, i32 0, metadata !85, i32 2086} ; [ DW_TAG_subprogram ]
!400 = metadata !{i32 786478, i32 0, metadata !156, metadata !"and_reduce", metadata !"and_reduce", metadata !"_ZN11ap_int_baseILi24ELb1ELb1EE10and_reduceEv", metadata !152, i32 2266, metadata !401, i1 false, i1 false, i32 0, i32 0, null, i32 256, i1 false, null, null, i32 0, metadata !85, i32 2266} ; [ DW_TAG_subprogram ]
!401 = metadata !{i32 786453, i32 0, metadata !"", i32 0, i32 0, i64 0, i64 0, i64 0, i32 0, null, metadata !402, i32 0, i32 0} ; [ DW_TAG_subroutine_type ]
!402 = metadata !{metadata !113, metadata !179}
!403 = metadata !{i32 786478, i32 0, metadata !156, metadata !"nand_reduce", metadata !"nand_reduce", metadata !"_ZN11ap_int_baseILi24ELb1ELb1EE11nand_reduceEv", metadata !152, i32 2269, metadata !401, i1 false, i1 false, i32 0, i32 0, null, i32 256, i1 false, null, null, i32 0, metadata !85, i32 2269} ; [ DW_TAG_subprogram ]
!404 = metadata !{i32 786478, i32 0, metadata !156, metadata !"or_reduce", metadata !"or_reduce", metadata !"_ZN11ap_int_baseILi24ELb1ELb1EE9or_reduceEv", metadata !152, i32 2272, metadata !401, i1 false, i1 false, i32 0, i32 0, null, i32 256, i1 false, null, null, i32 0, metadata !85, i32 2272} ; [ DW_TAG_subprogram ]
!405 = metadata !{i32 786478, i32 0, metadata !156, metadata !"nor_reduce", metadata !"nor_reduce", metadata !"_ZN11ap_int_baseILi24ELb1ELb1EE10nor_reduceEv", metadata !152, i32 2275, metadata !401, i1 false, i1 false, i32 0, i32 0, null, i32 256, i1 false, null, null, i32 0, metadata !85, i32 2275} ; [ DW_TAG_subprogram ]
!406 = metadata !{i32 786478, i32 0, metadata !156, metadata !"xor_reduce", metadata !"xor_reduce", metadata !"_ZN11ap_int_baseILi24ELb1ELb1EE10xor_reduceEv", metadata !152, i32 2278, metadata !401, i1 false, i1 false, i32 0, i32 0, null, i32 256, i1 false, null, null, i32 0, metadata !85, i32 2278} ; [ DW_TAG_subprogram ]
!407 = metadata !{i32 786478, i32 0, metadata !156, metadata !"xnor_reduce", metadata !"xnor_reduce", metadata !"_ZN11ap_int_baseILi24ELb1ELb1EE11xnor_reduceEv", metadata !152, i32 2281, metadata !401, i1 false, i1 false, i32 0, i32 0, null, i32 256, i1 false, null, null, i32 0, metadata !85, i32 2281} ; [ DW_TAG_subprogram ]
!408 = metadata !{i32 786478, i32 0, metadata !156, metadata !"and_reduce", metadata !"and_reduce", metadata !"_ZNK11ap_int_baseILi24ELb1ELb1EE10and_reduceEv", metadata !152, i32 2285, metadata !306, i1 false, i1 false, i32 0, i32 0, null, i32 256, i1 false, null, null, i32 0, metadata !85, i32 2285} ; [ DW_TAG_subprogram ]
!409 = metadata !{i32 786478, i32 0, metadata !156, metadata !"nand_reduce", metadata !"nand_reduce", metadata !"_ZNK11ap_int_baseILi24ELb1ELb1EE11nand_reduceEv", metadata !152, i32 2288, metadata !306, i1 false, i1 false, i32 0, i32 0, null, i32 256, i1 false, null, null, i32 0, metadata !85, i32 2288} ; [ DW_TAG_subprogram ]
!410 = metadata !{i32 786478, i32 0, metadata !156, metadata !"or_reduce", metadata !"or_reduce", metadata !"_ZNK11ap_int_baseILi24ELb1ELb1EE9or_reduceEv", metadata !152, i32 2291, metadata !306, i1 false, i1 false, i32 0, i32 0, null, i32 256, i1 false, null, null, i32 0, metadata !85, i32 2291} ; [ DW_TAG_subprogram ]
!411 = metadata !{i32 786478, i32 0, metadata !156, metadata !"nor_reduce", metadata !"nor_reduce", metadata !"_ZNK11ap_int_baseILi24ELb1ELb1EE10nor_reduceEv", metadata !152, i32 2294, metadata !306, i1 false, i1 false, i32 0, i32 0, null, i32 256, i1 false, null, null, i32 0, metadata !85, i32 2294} ; [ DW_TAG_subprogram ]
!412 = metadata !{i32 786478, i32 0, metadata !156, metadata !"xor_reduce", metadata !"xor_reduce", metadata !"_ZNK11ap_int_baseILi24ELb1ELb1EE10xor_reduceEv", metadata !152, i32 2297, metadata !306, i1 false, i1 false, i32 0, i32 0, null, i32 256, i1 false, null, null, i32 0, metadata !85, i32 2297} ; [ DW_TAG_subprogram ]
!413 = metadata !{i32 786478, i32 0, metadata !156, metadata !"xnor_reduce", metadata !"xnor_reduce", metadata !"_ZNK11ap_int_baseILi24ELb1ELb1EE11xnor_reduceEv", metadata !152, i32 2300, metadata !306, i1 false, i1 false, i32 0, i32 0, null, i32 256, i1 false, null, null, i32 0, metadata !85, i32 2300} ; [ DW_TAG_subprogram ]
!414 = metadata !{i32 786478, i32 0, metadata !156, metadata !"to_string", metadata !"to_string", metadata !"_ZNK11ap_int_baseILi24ELb1ELb1EE9to_stringEPci8BaseModeb", metadata !152, i32 2307, metadata !415, i1 false, i1 false, i32 0, i32 0, null, i32 256, i1 false, null, null, i32 0, metadata !85, i32 2307} ; [ DW_TAG_subprogram ]
!415 = metadata !{i32 786453, i32 0, metadata !"", i32 0, i32 0, i64 0, i64 0, i64 0, i32 0, null, metadata !416, i32 0, i32 0} ; [ DW_TAG_subroutine_type ]
!416 = metadata !{null, metadata !308, metadata !417, metadata !80, metadata !418, metadata !113}
!417 = metadata !{i32 786447, null, metadata !"", null, i32 0, i64 64, i64 64, i64 0, i32 0, metadata !92} ; [ DW_TAG_pointer_type ]
!418 = metadata !{i32 786436, null, metadata !"BaseMode", metadata !152, i32 603, i64 5, i64 8, i32 0, i32 0, null, metadata !419, i32 0, i32 0} ; [ DW_TAG_enumeration_type ]
!419 = metadata !{metadata !420, metadata !421, metadata !422, metadata !423}
!420 = metadata !{i32 786472, metadata !"SC_BIN", i64 2} ; [ DW_TAG_enumerator ]
!421 = metadata !{i32 786472, metadata !"SC_OCT", i64 8} ; [ DW_TAG_enumerator ]
!422 = metadata !{i32 786472, metadata !"SC_DEC", i64 10} ; [ DW_TAG_enumerator ]
!423 = metadata !{i32 786472, metadata !"SC_HEX", i64 16} ; [ DW_TAG_enumerator ]
!424 = metadata !{i32 786478, i32 0, metadata !156, metadata !"to_string", metadata !"to_string", metadata !"_ZNK11ap_int_baseILi24ELb1ELb1EE9to_stringE8BaseModeb", metadata !152, i32 2334, metadata !425, i1 false, i1 false, i32 0, i32 0, null, i32 256, i1 false, null, null, i32 0, metadata !85, i32 2334} ; [ DW_TAG_subprogram ]
!425 = metadata !{i32 786453, i32 0, metadata !"", i32 0, i32 0, i64 0, i64 0, i64 0, i32 0, null, metadata !426, i32 0, i32 0} ; [ DW_TAG_subroutine_type ]
!426 = metadata !{metadata !417, metadata !308, metadata !418, metadata !113}
!427 = metadata !{i32 786478, i32 0, metadata !156, metadata !"to_string", metadata !"to_string", metadata !"_ZNK11ap_int_baseILi24ELb1ELb1EE9to_stringEab", metadata !152, i32 2338, metadata !428, i1 false, i1 false, i32 0, i32 0, null, i32 256, i1 false, null, null, i32 0, metadata !85, i32 2338} ; [ DW_TAG_subprogram ]
!428 = metadata !{i32 786453, i32 0, metadata !"", i32 0, i32 0, i64 0, i64 0, i64 0, i32 0, null, metadata !429, i32 0, i32 0} ; [ DW_TAG_subroutine_type ]
!429 = metadata !{metadata !417, metadata !308, metadata !200, metadata !113}
!430 = metadata !{i32 786478, i32 0, metadata !156, metadata !"ap_int_base", metadata !"ap_int_base", metadata !"", metadata !152, i32 1398, metadata !181, i1 false, i1 false, i32 0, i32 0, null, i32 320, i1 false, null, null, i32 0, metadata !85, i32 1398} ; [ DW_TAG_subprogram ]
!431 = metadata !{i32 786478, i32 0, metadata !156, metadata !"~ap_int_base", metadata !"~ap_int_base", metadata !"", metadata !152, i32 1398, metadata !177, i1 false, i1 false, i32 0, i32 0, null, i32 320, i1 false, null, null, i32 0, metadata !85, i32 1398} ; [ DW_TAG_subprogram ]
!432 = metadata !{metadata !433, metadata !175, metadata !434}
!433 = metadata !{i32 786480, null, metadata !"_AP_W", metadata !80, i64 24, null, i32 0, i32 0} ; [ DW_TAG_template_value_parameter ]
!434 = metadata !{i32 786480, null, metadata !"_AP_C", metadata !113, i64 1, null, i32 0, i32 0} ; [ DW_TAG_template_value_parameter ]
!435 = metadata !{i32 786454, metadata !436, metadata !"Type", metadata !152, i32 1380, i64 0, i64 0, i64 0, i32 0, metadata !80} ; [ DW_TAG_typedef ]
!436 = metadata !{i32 786434, null, metadata !"retval<3, true>", metadata !152, i32 1379, i64 8, i64 8, i32 0, i32 0, null, metadata !437, i32 0, null, metadata !438} ; [ DW_TAG_class_type ]
!437 = metadata !{i32 0}
!438 = metadata !{metadata !439, metadata !175}
!439 = metadata !{i32 786480, null, metadata !"_AP_N", metadata !80, i64 3, null, i32 0, i32 0} ; [ DW_TAG_template_value_parameter ]
!440 = metadata !{i32 27, i32 26, metadata !148, null}
!441 = metadata !{i32 145, i32 31, metadata !442, metadata !444}
!442 = metadata !{i32 786443, metadata !443, i32 144, i32 79, metadata !71, i32 11} ; [ DW_TAG_lexical_block ]
!443 = metadata !{i32 786478, i32 0, metadata !70, metadata !"write", metadata !"write", metadata !"_ZN3hls6streamI13padded_sampleE5writeERKS1_", metadata !71, i32 144, metadata !106, i1 false, i1 true, i32 0, i32 0, null, i32 256, i1 false, null, null, metadata !123, metadata !85, i32 144} ; [ DW_TAG_subprogram ]
!444 = metadata !{i32 106, i32 9, metadata !445, metadata !447}
!445 = metadata !{i32 786443, metadata !446, i32 105, i32 88, metadata !71, i32 10} ; [ DW_TAG_lexical_block ]
!446 = metadata !{i32 786478, i32 0, metadata !70, metadata !"operator<<", metadata !"operator<<", metadata !"_ZN3hls6streamI13padded_sampleElsERKS1_", metadata !71, i32 105, metadata !106, i1 false, i1 true, i32 0, i32 0, null, i32 256, i1 false, null, null, metadata !105, metadata !85, i32 105} ; [ DW_TAG_subprogram ]
!447 = metadata !{i32 29, i32 2, metadata !148, null}
!448 = metadata !{i32 790536, metadata !449, metadata !"tmp", metadata !75, i32 145, metadata !144, i32 0, i32 0, metadata !450, metadata !451} ; [ DW_TAG_auto_variable_aggr_vec ]
!449 = metadata !{i32 786688, metadata !442, metadata !"tmp", metadata !71, i32 145, metadata !74, i32 0, i32 0} ; [ DW_TAG_auto_variable ]
!450 = metadata !{i32 790529, metadata !449, metadata !"tmp.padding", null, i32 145, metadata !138, i32 0, i32 0} ; [ DW_TAG_auto_variable_field ]
!451 = metadata !{i32 790529, metadata !449, metadata !"tmp.data", null, i32 145, metadata !144, i32 0, i32 0} ; [ DW_TAG_auto_variable_field ]
!452 = metadata !{i32 33, i32 2, metadata !148, null}
!453 = metadata !{i32 34, i32 2, metadata !148, null}
!454 = metadata !{i32 35, i32 3, metadata !455, null}
!455 = metadata !{i32 786443, metadata !148, i32 34, i32 19, metadata !65, i32 1} ; [ DW_TAG_lexical_block ]
!456 = metadata !{i32 1824, i32 147, metadata !457, metadata !1002}
!457 = metadata !{i32 786443, metadata !458, i32 1824, i32 143, metadata !152, i32 9} ; [ DW_TAG_lexical_block ]
!458 = metadata !{i32 786478, i32 0, null, metadata !"operator+=<32, true>", metadata !"operator+=<32, true>", metadata !"_ZN11ap_int_baseILi24ELb1ELb1EEpLILi32ELb1EEERS0_RKS_IXT_EXT0_EXleT_Li64EEE", metadata !152, i32 1824, metadata !459, i1 false, i1 true, i32 0, i32 0, null, i32 256, i1 false, null, metadata !482, null, metadata !85, i32 1824} ; [ DW_TAG_subprogram ]
!459 = metadata !{i32 786453, i32 0, metadata !"", i32 0, i32 0, i64 0, i64 0, i64 0, i32 0, null, metadata !460, i32 0, i32 0} ; [ DW_TAG_subroutine_type ]
!460 = metadata !{metadata !270, metadata !179, metadata !461}
!461 = metadata !{i32 786448, null, null, null, i32 0, i64 0, i64 0, i64 0, i32 0, metadata !462} ; [ DW_TAG_reference_type ]
!462 = metadata !{i32 786470, null, metadata !"", null, i32 0, i64 0, i64 0, i64 0, i32 0, metadata !463} ; [ DW_TAG_const_type ]
!463 = metadata !{i32 786434, null, metadata !"ap_int_base<32, true, true>", metadata !152, i32 1398, i64 32, i64 32, i32 0, i32 0, null, metadata !464, i32 0, null, metadata !1000} ; [ DW_TAG_class_type ]
!464 = metadata !{metadata !465, metadata !475, metadata !479, metadata !484, metadata !490, metadata !493, metadata !496, metadata !499, metadata !502, metadata !505, metadata !508, metadata !511, metadata !514, metadata !517, metadata !520, metadata !523, metadata !526, metadata !529, metadata !532, metadata !535, metadata !538, metadata !542, metadata !545, metadata !548, metadata !549, metadata !553, metadata !556, metadata !559, metadata !562, metadata !565, metadata !568, metadata !571, metadata !574, metadata !577, metadata !580, metadata !583, metadata !586, metadata !595, metadata !598, metadata !601, metadata !604, metadata !607, metadata !610, metadata !613, metadata !616, metadata !619, metadata !622, metadata !625, metadata !628, metadata !631, metadata !632, metadata !636, metadata !639, metadata !640, metadata !641, metadata !642, metadata !643, metadata !644, metadata !647, metadata !648, metadata !651, metadata !652, metadata !653, metadata !654, metadata !655, metadata !656, metadata !659, metadata !660, metadata !661, metadata !664, metadata !665, metadata !668, metadata !669, metadata !960, metadata !964, metadata !965, metadata !968, metadata !969, metadata !973, metadata !974, metadata !975, metadata !976, metadata !979, metadata !980, metadata !981, metadata !982, metadata !983, metadata !984, metadata !985, metadata !986, metadata !987, metadata !988, metadata !989, metadata !990, metadata !993, metadata !996, metadata !999}
!465 = metadata !{i32 786460, metadata !463, null, metadata !152, i32 0, i64 0, i64 0, i64 0, i32 0, metadata !466} ; [ DW_TAG_inheritance ]
!466 = metadata !{i32 786434, null, metadata !"ssdm_int<32 + 1024 * 0, true>", metadata !160, i32 34, i64 32, i64 32, i32 0, i32 0, null, metadata !467, i32 0, null, metadata !473} ; [ DW_TAG_class_type ]
!467 = metadata !{metadata !468, metadata !469}
!468 = metadata !{i32 786445, metadata !466, metadata !"V", metadata !160, i32 34, i64 32, i64 32, i64 0, i32 0, metadata !133} ; [ DW_TAG_member ]
!469 = metadata !{i32 786478, i32 0, metadata !466, metadata !"ssdm_int", metadata !"ssdm_int", metadata !"", metadata !160, i32 34, metadata !470, i1 false, i1 false, i32 0, i32 0, null, i32 256, i1 false, null, null, i32 0, metadata !85, i32 34} ; [ DW_TAG_subprogram ]
!470 = metadata !{i32 786453, i32 0, metadata !"", i32 0, i32 0, i64 0, i64 0, i64 0, i32 0, null, metadata !471, i32 0, i32 0} ; [ DW_TAG_subroutine_type ]
!471 = metadata !{null, metadata !472}
!472 = metadata !{i32 786447, i32 0, metadata !"", i32 0, i32 0, i64 64, i64 64, i64 0, i32 64, metadata !466} ; [ DW_TAG_pointer_type ]
!473 = metadata !{metadata !474, metadata !175}
!474 = metadata !{i32 786480, null, metadata !"_AP_N", metadata !80, i64 32, null, i32 0, i32 0} ; [ DW_TAG_template_value_parameter ]
!475 = metadata !{i32 786478, i32 0, metadata !463, metadata !"ap_int_base", metadata !"ap_int_base", metadata !"", metadata !152, i32 1439, metadata !476, i1 false, i1 false, i32 0, i32 0, null, i32 256, i1 false, null, null, i32 0, metadata !85, i32 1439} ; [ DW_TAG_subprogram ]
!476 = metadata !{i32 786453, i32 0, metadata !"", i32 0, i32 0, i64 0, i64 0, i64 0, i32 0, null, metadata !477, i32 0, i32 0} ; [ DW_TAG_subroutine_type ]
!477 = metadata !{null, metadata !478}
!478 = metadata !{i32 786447, i32 0, metadata !"", i32 0, i32 0, i64 64, i64 64, i64 0, i32 64, metadata !463} ; [ DW_TAG_pointer_type ]
!479 = metadata !{i32 786478, i32 0, metadata !463, metadata !"ap_int_base<32, true>", metadata !"ap_int_base<32, true>", metadata !"", metadata !152, i32 1451, metadata !480, i1 false, i1 false, i32 0, i32 0, null, i32 256, i1 false, null, metadata !482, i32 0, metadata !85, i32 1451} ; [ DW_TAG_subprogram ]
!480 = metadata !{i32 786453, i32 0, metadata !"", i32 0, i32 0, i64 0, i64 0, i64 0, i32 0, null, metadata !481, i32 0, i32 0} ; [ DW_TAG_subroutine_type ]
!481 = metadata !{null, metadata !478, metadata !461}
!482 = metadata !{metadata !483, metadata !187}
!483 = metadata !{i32 786480, null, metadata !"_AP_W2", metadata !80, i64 32, null, i32 0, i32 0} ; [ DW_TAG_template_value_parameter ]
!484 = metadata !{i32 786478, i32 0, metadata !463, metadata !"ap_int_base<32, true>", metadata !"ap_int_base<32, true>", metadata !"", metadata !152, i32 1454, metadata !485, i1 false, i1 false, i32 0, i32 0, null, i32 256, i1 false, null, metadata !482, i32 0, metadata !85, i32 1454} ; [ DW_TAG_subprogram ]
!485 = metadata !{i32 786453, i32 0, metadata !"", i32 0, i32 0, i64 0, i64 0, i64 0, i32 0, null, metadata !486, i32 0, i32 0} ; [ DW_TAG_subroutine_type ]
!486 = metadata !{null, metadata !478, metadata !487}
!487 = metadata !{i32 786448, null, null, null, i32 0, i64 0, i64 0, i64 0, i32 0, metadata !488} ; [ DW_TAG_reference_type ]
!488 = metadata !{i32 786470, null, metadata !"", null, i32 0, i64 0, i64 0, i64 0, i32 0, metadata !489} ; [ DW_TAG_const_type ]
!489 = metadata !{i32 786485, null, metadata !"", null, i32 0, i64 0, i64 0, i64 0, i32 0, metadata !463} ; [ DW_TAG_volatile_type ]
!490 = metadata !{i32 786478, i32 0, metadata !463, metadata !"ap_int_base", metadata !"ap_int_base", metadata !"", metadata !152, i32 1461, metadata !491, i1 false, i1 false, i32 0, i32 0, null, i32 384, i1 false, null, null, i32 0, metadata !85, i32 1461} ; [ DW_TAG_subprogram ]
!491 = metadata !{i32 786453, i32 0, metadata !"", i32 0, i32 0, i64 0, i64 0, i64 0, i32 0, null, metadata !492, i32 0, i32 0} ; [ DW_TAG_subroutine_type ]
!492 = metadata !{null, metadata !478, metadata !113}
!493 = metadata !{i32 786478, i32 0, metadata !463, metadata !"ap_int_base", metadata !"ap_int_base", metadata !"", metadata !152, i32 1462, metadata !494, i1 false, i1 false, i32 0, i32 0, null, i32 384, i1 false, null, null, i32 0, metadata !85, i32 1462} ; [ DW_TAG_subprogram ]
!494 = metadata !{i32 786453, i32 0, metadata !"", i32 0, i32 0, i64 0, i64 0, i64 0, i32 0, null, metadata !495, i32 0, i32 0} ; [ DW_TAG_subroutine_type ]
!495 = metadata !{null, metadata !478, metadata !200}
!496 = metadata !{i32 786478, i32 0, metadata !463, metadata !"ap_int_base", metadata !"ap_int_base", metadata !"", metadata !152, i32 1463, metadata !497, i1 false, i1 false, i32 0, i32 0, null, i32 384, i1 false, null, null, i32 0, metadata !85, i32 1463} ; [ DW_TAG_subprogram ]
!497 = metadata !{i32 786453, i32 0, metadata !"", i32 0, i32 0, i64 0, i64 0, i64 0, i32 0, null, metadata !498, i32 0, i32 0} ; [ DW_TAG_subroutine_type ]
!498 = metadata !{null, metadata !478, metadata !204}
!499 = metadata !{i32 786478, i32 0, metadata !463, metadata !"ap_int_base", metadata !"ap_int_base", metadata !"", metadata !152, i32 1464, metadata !500, i1 false, i1 false, i32 0, i32 0, null, i32 384, i1 false, null, null, i32 0, metadata !85, i32 1464} ; [ DW_TAG_subprogram ]
!500 = metadata !{i32 786453, i32 0, metadata !"", i32 0, i32 0, i64 0, i64 0, i64 0, i32 0, null, metadata !501, i32 0, i32 0} ; [ DW_TAG_subroutine_type ]
!501 = metadata !{null, metadata !478, metadata !208}
!502 = metadata !{i32 786478, i32 0, metadata !463, metadata !"ap_int_base", metadata !"ap_int_base", metadata !"", metadata !152, i32 1465, metadata !503, i1 false, i1 false, i32 0, i32 0, null, i32 384, i1 false, null, null, i32 0, metadata !85, i32 1465} ; [ DW_TAG_subprogram ]
!503 = metadata !{i32 786453, i32 0, metadata !"", i32 0, i32 0, i64 0, i64 0, i64 0, i32 0, null, metadata !504, i32 0, i32 0} ; [ DW_TAG_subroutine_type ]
!504 = metadata !{null, metadata !478, metadata !212}
!505 = metadata !{i32 786478, i32 0, metadata !463, metadata !"ap_int_base", metadata !"ap_int_base", metadata !"", metadata !152, i32 1466, metadata !506, i1 false, i1 false, i32 0, i32 0, null, i32 384, i1 false, null, null, i32 0, metadata !85, i32 1466} ; [ DW_TAG_subprogram ]
!506 = metadata !{i32 786453, i32 0, metadata !"", i32 0, i32 0, i64 0, i64 0, i64 0, i32 0, null, metadata !507, i32 0, i32 0} ; [ DW_TAG_subroutine_type ]
!507 = metadata !{null, metadata !478, metadata !80}
!508 = metadata !{i32 786478, i32 0, metadata !463, metadata !"ap_int_base", metadata !"ap_int_base", metadata !"", metadata !152, i32 1467, metadata !509, i1 false, i1 false, i32 0, i32 0, null, i32 384, i1 false, null, null, i32 0, metadata !85, i32 1467} ; [ DW_TAG_subprogram ]
!509 = metadata !{i32 786453, i32 0, metadata !"", i32 0, i32 0, i64 0, i64 0, i64 0, i32 0, null, metadata !510, i32 0, i32 0} ; [ DW_TAG_subroutine_type ]
!510 = metadata !{null, metadata !478, metadata !78}
!511 = metadata !{i32 786478, i32 0, metadata !463, metadata !"ap_int_base", metadata !"ap_int_base", metadata !"", metadata !152, i32 1468, metadata !512, i1 false, i1 false, i32 0, i32 0, null, i32 384, i1 false, null, null, i32 0, metadata !85, i32 1468} ; [ DW_TAG_subprogram ]
!512 = metadata !{i32 786453, i32 0, metadata !"", i32 0, i32 0, i64 0, i64 0, i64 0, i32 0, null, metadata !513, i32 0, i32 0} ; [ DW_TAG_subroutine_type ]
!513 = metadata !{null, metadata !478, metadata !222}
!514 = metadata !{i32 786478, i32 0, metadata !463, metadata !"ap_int_base", metadata !"ap_int_base", metadata !"", metadata !152, i32 1469, metadata !515, i1 false, i1 false, i32 0, i32 0, null, i32 384, i1 false, null, null, i32 0, metadata !85, i32 1469} ; [ DW_TAG_subprogram ]
!515 = metadata !{i32 786453, i32 0, metadata !"", i32 0, i32 0, i64 0, i64 0, i64 0, i32 0, null, metadata !516, i32 0, i32 0} ; [ DW_TAG_subroutine_type ]
!516 = metadata !{null, metadata !478, metadata !226}
!517 = metadata !{i32 786478, i32 0, metadata !463, metadata !"ap_int_base", metadata !"ap_int_base", metadata !"", metadata !152, i32 1470, metadata !518, i1 false, i1 false, i32 0, i32 0, null, i32 384, i1 false, null, null, i32 0, metadata !85, i32 1470} ; [ DW_TAG_subprogram ]
!518 = metadata !{i32 786453, i32 0, metadata !"", i32 0, i32 0, i64 0, i64 0, i64 0, i32 0, null, metadata !519, i32 0, i32 0} ; [ DW_TAG_subroutine_type ]
!519 = metadata !{null, metadata !478, metadata !230}
!520 = metadata !{i32 786478, i32 0, metadata !463, metadata !"ap_int_base", metadata !"ap_int_base", metadata !"", metadata !152, i32 1471, metadata !521, i1 false, i1 false, i32 0, i32 0, null, i32 384, i1 false, null, null, i32 0, metadata !85, i32 1471} ; [ DW_TAG_subprogram ]
!521 = metadata !{i32 786453, i32 0, metadata !"", i32 0, i32 0, i64 0, i64 0, i64 0, i32 0, null, metadata !522, i32 0, i32 0} ; [ DW_TAG_subroutine_type ]
!522 = metadata !{null, metadata !478, metadata !235}
!523 = metadata !{i32 786478, i32 0, metadata !463, metadata !"ap_int_base", metadata !"ap_int_base", metadata !"", metadata !152, i32 1472, metadata !524, i1 false, i1 false, i32 0, i32 0, null, i32 384, i1 false, null, null, i32 0, metadata !85, i32 1472} ; [ DW_TAG_subprogram ]
!524 = metadata !{i32 786453, i32 0, metadata !"", i32 0, i32 0, i64 0, i64 0, i64 0, i32 0, null, metadata !525, i32 0, i32 0} ; [ DW_TAG_subroutine_type ]
!525 = metadata !{null, metadata !478, metadata !240}
!526 = metadata !{i32 786478, i32 0, metadata !463, metadata !"ap_int_base", metadata !"ap_int_base", metadata !"", metadata !152, i32 1473, metadata !527, i1 false, i1 false, i32 0, i32 0, null, i32 384, i1 false, null, null, i32 0, metadata !85, i32 1473} ; [ DW_TAG_subprogram ]
!527 = metadata !{i32 786453, i32 0, metadata !"", i32 0, i32 0, i64 0, i64 0, i64 0, i32 0, null, metadata !528, i32 0, i32 0} ; [ DW_TAG_subroutine_type ]
!528 = metadata !{null, metadata !478, metadata !245}
!529 = metadata !{i32 786478, i32 0, metadata !463, metadata !"ap_int_base", metadata !"ap_int_base", metadata !"", metadata !152, i32 1474, metadata !530, i1 false, i1 false, i32 0, i32 0, null, i32 384, i1 false, null, null, i32 0, metadata !85, i32 1474} ; [ DW_TAG_subprogram ]
!530 = metadata !{i32 786453, i32 0, metadata !"", i32 0, i32 0, i64 0, i64 0, i64 0, i32 0, null, metadata !531, i32 0, i32 0} ; [ DW_TAG_subroutine_type ]
!531 = metadata !{null, metadata !478, metadata !249}
!532 = metadata !{i32 786478, i32 0, metadata !463, metadata !"ap_int_base", metadata !"ap_int_base", metadata !"", metadata !152, i32 1501, metadata !533, i1 false, i1 false, i32 0, i32 0, null, i32 256, i1 false, null, null, i32 0, metadata !85, i32 1501} ; [ DW_TAG_subprogram ]
!533 = metadata !{i32 786453, i32 0, metadata !"", i32 0, i32 0, i64 0, i64 0, i64 0, i32 0, null, metadata !534, i32 0, i32 0} ; [ DW_TAG_subroutine_type ]
!534 = metadata !{null, metadata !478, metadata !90}
!535 = metadata !{i32 786478, i32 0, metadata !463, metadata !"ap_int_base", metadata !"ap_int_base", metadata !"", metadata !152, i32 1508, metadata !536, i1 false, i1 false, i32 0, i32 0, null, i32 256, i1 false, null, null, i32 0, metadata !85, i32 1508} ; [ DW_TAG_subprogram ]
!536 = metadata !{i32 786453, i32 0, metadata !"", i32 0, i32 0, i64 0, i64 0, i64 0, i32 0, null, metadata !537, i32 0, i32 0} ; [ DW_TAG_subroutine_type ]
!537 = metadata !{null, metadata !478, metadata !90, metadata !200}
!538 = metadata !{i32 786478, i32 0, metadata !463, metadata !"read", metadata !"read", metadata !"_ZNV11ap_int_baseILi32ELb1ELb1EE4readEv", metadata !152, i32 1529, metadata !539, i1 false, i1 false, i32 0, i32 0, null, i32 256, i1 false, null, null, i32 0, metadata !85, i32 1529} ; [ DW_TAG_subprogram ]
!539 = metadata !{i32 786453, i32 0, metadata !"", i32 0, i32 0, i64 0, i64 0, i64 0, i32 0, null, metadata !540, i32 0, i32 0} ; [ DW_TAG_subroutine_type ]
!540 = metadata !{metadata !463, metadata !541}
!541 = metadata !{i32 786447, i32 0, metadata !"", i32 0, i32 0, i64 64, i64 64, i64 0, i32 64, metadata !489} ; [ DW_TAG_pointer_type ]
!542 = metadata !{i32 786478, i32 0, metadata !463, metadata !"write", metadata !"write", metadata !"_ZNV11ap_int_baseILi32ELb1ELb1EE5writeERKS0_", metadata !152, i32 1535, metadata !543, i1 false, i1 false, i32 0, i32 0, null, i32 256, i1 false, null, null, i32 0, metadata !85, i32 1535} ; [ DW_TAG_subprogram ]
!543 = metadata !{i32 786453, i32 0, metadata !"", i32 0, i32 0, i64 0, i64 0, i64 0, i32 0, null, metadata !544, i32 0, i32 0} ; [ DW_TAG_subroutine_type ]
!544 = metadata !{null, metadata !541, metadata !461}
!545 = metadata !{i32 786478, i32 0, metadata !463, metadata !"operator=", metadata !"operator=", metadata !"_ZNV11ap_int_baseILi32ELb1ELb1EEaSERVKS0_", metadata !152, i32 1547, metadata !546, i1 false, i1 false, i32 0, i32 0, null, i32 256, i1 false, null, null, i32 0, metadata !85, i32 1547} ; [ DW_TAG_subprogram ]
!546 = metadata !{i32 786453, i32 0, metadata !"", i32 0, i32 0, i64 0, i64 0, i64 0, i32 0, null, metadata !547, i32 0, i32 0} ; [ DW_TAG_subroutine_type ]
!547 = metadata !{null, metadata !541, metadata !487}
!548 = metadata !{i32 786478, i32 0, metadata !463, metadata !"operator=", metadata !"operator=", metadata !"_ZNV11ap_int_baseILi32ELb1ELb1EEaSERKS0_", metadata !152, i32 1556, metadata !543, i1 false, i1 false, i32 0, i32 0, null, i32 256, i1 false, null, null, i32 0, metadata !85, i32 1556} ; [ DW_TAG_subprogram ]
!549 = metadata !{i32 786478, i32 0, metadata !463, metadata !"operator=", metadata !"operator=", metadata !"_ZN11ap_int_baseILi32ELb1ELb1EEaSERVKS0_", metadata !152, i32 1579, metadata !550, i1 false, i1 false, i32 0, i32 0, null, i32 256, i1 false, null, null, i32 0, metadata !85, i32 1579} ; [ DW_TAG_subprogram ]
!550 = metadata !{i32 786453, i32 0, metadata !"", i32 0, i32 0, i64 0, i64 0, i64 0, i32 0, null, metadata !551, i32 0, i32 0} ; [ DW_TAG_subroutine_type ]
!551 = metadata !{metadata !552, metadata !478, metadata !487}
!552 = metadata !{i32 786448, null, null, null, i32 0, i64 0, i64 0, i64 0, i32 0, metadata !463} ; [ DW_TAG_reference_type ]
!553 = metadata !{i32 786478, i32 0, metadata !463, metadata !"operator=", metadata !"operator=", metadata !"_ZN11ap_int_baseILi32ELb1ELb1EEaSERKS0_", metadata !152, i32 1584, metadata !554, i1 false, i1 false, i32 0, i32 0, null, i32 256, i1 false, null, null, i32 0, metadata !85, i32 1584} ; [ DW_TAG_subprogram ]
!554 = metadata !{i32 786453, i32 0, metadata !"", i32 0, i32 0, i64 0, i64 0, i64 0, i32 0, null, metadata !555, i32 0, i32 0} ; [ DW_TAG_subroutine_type ]
!555 = metadata !{metadata !552, metadata !478, metadata !461}
!556 = metadata !{i32 786478, i32 0, metadata !463, metadata !"operator=", metadata !"operator=", metadata !"_ZN11ap_int_baseILi32ELb1ELb1EEaSEPKc", metadata !152, i32 1588, metadata !557, i1 false, i1 false, i32 0, i32 0, null, i32 256, i1 false, null, null, i32 0, metadata !85, i32 1588} ; [ DW_TAG_subprogram ]
!557 = metadata !{i32 786453, i32 0, metadata !"", i32 0, i32 0, i64 0, i64 0, i64 0, i32 0, null, metadata !558, i32 0, i32 0} ; [ DW_TAG_subroutine_type ]
!558 = metadata !{metadata !552, metadata !478, metadata !90}
!559 = metadata !{i32 786478, i32 0, metadata !463, metadata !"set", metadata !"set", metadata !"_ZN11ap_int_baseILi32ELb1ELb1EE3setEPKca", metadata !152, i32 1596, metadata !560, i1 false, i1 false, i32 0, i32 0, null, i32 256, i1 false, null, null, i32 0, metadata !85, i32 1596} ; [ DW_TAG_subprogram ]
!560 = metadata !{i32 786453, i32 0, metadata !"", i32 0, i32 0, i64 0, i64 0, i64 0, i32 0, null, metadata !561, i32 0, i32 0} ; [ DW_TAG_subroutine_type ]
!561 = metadata !{metadata !552, metadata !478, metadata !90, metadata !200}
!562 = metadata !{i32 786478, i32 0, metadata !463, metadata !"operator=", metadata !"operator=", metadata !"_ZN11ap_int_baseILi32ELb1ELb1EEaSEa", metadata !152, i32 1610, metadata !563, i1 false, i1 false, i32 0, i32 0, null, i32 256, i1 false, null, null, i32 0, metadata !85, i32 1610} ; [ DW_TAG_subprogram ]
!563 = metadata !{i32 786453, i32 0, metadata !"", i32 0, i32 0, i64 0, i64 0, i64 0, i32 0, null, metadata !564, i32 0, i32 0} ; [ DW_TAG_subroutine_type ]
!564 = metadata !{metadata !552, metadata !478, metadata !200}
!565 = metadata !{i32 786478, i32 0, metadata !463, metadata !"operator=", metadata !"operator=", metadata !"_ZN11ap_int_baseILi32ELb1ELb1EEaSEh", metadata !152, i32 1611, metadata !566, i1 false, i1 false, i32 0, i32 0, null, i32 256, i1 false, null, null, i32 0, metadata !85, i32 1611} ; [ DW_TAG_subprogram ]
!566 = metadata !{i32 786453, i32 0, metadata !"", i32 0, i32 0, i64 0, i64 0, i64 0, i32 0, null, metadata !567, i32 0, i32 0} ; [ DW_TAG_subroutine_type ]
!567 = metadata !{metadata !552, metadata !478, metadata !204}
!568 = metadata !{i32 786478, i32 0, metadata !463, metadata !"operator=", metadata !"operator=", metadata !"_ZN11ap_int_baseILi32ELb1ELb1EEaSEs", metadata !152, i32 1612, metadata !569, i1 false, i1 false, i32 0, i32 0, null, i32 256, i1 false, null, null, i32 0, metadata !85, i32 1612} ; [ DW_TAG_subprogram ]
!569 = metadata !{i32 786453, i32 0, metadata !"", i32 0, i32 0, i64 0, i64 0, i64 0, i32 0, null, metadata !570, i32 0, i32 0} ; [ DW_TAG_subroutine_type ]
!570 = metadata !{metadata !552, metadata !478, metadata !208}
!571 = metadata !{i32 786478, i32 0, metadata !463, metadata !"operator=", metadata !"operator=", metadata !"_ZN11ap_int_baseILi32ELb1ELb1EEaSEt", metadata !152, i32 1613, metadata !572, i1 false, i1 false, i32 0, i32 0, null, i32 256, i1 false, null, null, i32 0, metadata !85, i32 1613} ; [ DW_TAG_subprogram ]
!572 = metadata !{i32 786453, i32 0, metadata !"", i32 0, i32 0, i64 0, i64 0, i64 0, i32 0, null, metadata !573, i32 0, i32 0} ; [ DW_TAG_subroutine_type ]
!573 = metadata !{metadata !552, metadata !478, metadata !212}
!574 = metadata !{i32 786478, i32 0, metadata !463, metadata !"operator=", metadata !"operator=", metadata !"_ZN11ap_int_baseILi32ELb1ELb1EEaSEi", metadata !152, i32 1614, metadata !575, i1 false, i1 false, i32 0, i32 0, null, i32 256, i1 false, null, null, i32 0, metadata !85, i32 1614} ; [ DW_TAG_subprogram ]
!575 = metadata !{i32 786453, i32 0, metadata !"", i32 0, i32 0, i64 0, i64 0, i64 0, i32 0, null, metadata !576, i32 0, i32 0} ; [ DW_TAG_subroutine_type ]
!576 = metadata !{metadata !552, metadata !478, metadata !80}
!577 = metadata !{i32 786478, i32 0, metadata !463, metadata !"operator=", metadata !"operator=", metadata !"_ZN11ap_int_baseILi32ELb1ELb1EEaSEj", metadata !152, i32 1615, metadata !578, i1 false, i1 false, i32 0, i32 0, null, i32 256, i1 false, null, null, i32 0, metadata !85, i32 1615} ; [ DW_TAG_subprogram ]
!578 = metadata !{i32 786453, i32 0, metadata !"", i32 0, i32 0, i64 0, i64 0, i64 0, i32 0, null, metadata !579, i32 0, i32 0} ; [ DW_TAG_subroutine_type ]
!579 = metadata !{metadata !552, metadata !478, metadata !78}
!580 = metadata !{i32 786478, i32 0, metadata !463, metadata !"operator=", metadata !"operator=", metadata !"_ZN11ap_int_baseILi32ELb1ELb1EEaSEx", metadata !152, i32 1616, metadata !581, i1 false, i1 false, i32 0, i32 0, null, i32 256, i1 false, null, null, i32 0, metadata !85, i32 1616} ; [ DW_TAG_subprogram ]
!581 = metadata !{i32 786453, i32 0, metadata !"", i32 0, i32 0, i64 0, i64 0, i64 0, i32 0, null, metadata !582, i32 0, i32 0} ; [ DW_TAG_subroutine_type ]
!582 = metadata !{metadata !552, metadata !478, metadata !230}
!583 = metadata !{i32 786478, i32 0, metadata !463, metadata !"operator=", metadata !"operator=", metadata !"_ZN11ap_int_baseILi32ELb1ELb1EEaSEy", metadata !152, i32 1617, metadata !584, i1 false, i1 false, i32 0, i32 0, null, i32 256, i1 false, null, null, i32 0, metadata !85, i32 1617} ; [ DW_TAG_subprogram ]
!584 = metadata !{i32 786453, i32 0, metadata !"", i32 0, i32 0, i64 0, i64 0, i64 0, i32 0, null, metadata !585, i32 0, i32 0} ; [ DW_TAG_subroutine_type ]
!585 = metadata !{metadata !552, metadata !478, metadata !235}
!586 = metadata !{i32 786478, i32 0, metadata !463, metadata !"operator int", metadata !"operator int", metadata !"_ZNK11ap_int_baseILi32ELb1ELb1EEcviEv", metadata !152, i32 1655, metadata !587, i1 false, i1 false, i32 0, i32 0, null, i32 256, i1 false, null, null, i32 0, metadata !85, i32 1655} ; [ DW_TAG_subprogram ]
!587 = metadata !{i32 786453, i32 0, metadata !"", i32 0, i32 0, i64 0, i64 0, i64 0, i32 0, null, metadata !588, i32 0, i32 0} ; [ DW_TAG_subroutine_type ]
!588 = metadata !{metadata !589, metadata !594}
!589 = metadata !{i32 786454, metadata !463, metadata !"RetType", metadata !152, i32 1403, i64 0, i64 0, i64 0, i32 0, metadata !590} ; [ DW_TAG_typedef ]
!590 = metadata !{i32 786454, metadata !591, metadata !"Type", metadata !152, i32 1386, i64 0, i64 0, i64 0, i32 0, metadata !80} ; [ DW_TAG_typedef ]
!591 = metadata !{i32 786434, null, metadata !"retval<4, true>", metadata !152, i32 1385, i64 8, i64 8, i32 0, i32 0, null, metadata !437, i32 0, null, metadata !592} ; [ DW_TAG_class_type ]
!592 = metadata !{metadata !593, metadata !175}
!593 = metadata !{i32 786480, null, metadata !"_AP_N", metadata !80, i64 4, null, i32 0, i32 0} ; [ DW_TAG_template_value_parameter ]
!594 = metadata !{i32 786447, i32 0, metadata !"", i32 0, i32 0, i64 64, i64 64, i64 0, i32 64, metadata !462} ; [ DW_TAG_pointer_type ]
!595 = metadata !{i32 786478, i32 0, metadata !463, metadata !"to_bool", metadata !"to_bool", metadata !"_ZNK11ap_int_baseILi32ELb1ELb1EE7to_boolEv", metadata !152, i32 1661, metadata !596, i1 false, i1 false, i32 0, i32 0, null, i32 256, i1 false, null, null, i32 0, metadata !85, i32 1661} ; [ DW_TAG_subprogram ]
!596 = metadata !{i32 786453, i32 0, metadata !"", i32 0, i32 0, i64 0, i64 0, i64 0, i32 0, null, metadata !597, i32 0, i32 0} ; [ DW_TAG_subroutine_type ]
!597 = metadata !{metadata !113, metadata !594}
!598 = metadata !{i32 786478, i32 0, metadata !463, metadata !"to_uchar", metadata !"to_uchar", metadata !"_ZNK11ap_int_baseILi32ELb1ELb1EE8to_ucharEv", metadata !152, i32 1662, metadata !599, i1 false, i1 false, i32 0, i32 0, null, i32 256, i1 false, null, null, i32 0, metadata !85, i32 1662} ; [ DW_TAG_subprogram ]
!599 = metadata !{i32 786453, i32 0, metadata !"", i32 0, i32 0, i64 0, i64 0, i64 0, i32 0, null, metadata !600, i32 0, i32 0} ; [ DW_TAG_subroutine_type ]
!600 = metadata !{metadata !204, metadata !594}
!601 = metadata !{i32 786478, i32 0, metadata !463, metadata !"to_char", metadata !"to_char", metadata !"_ZNK11ap_int_baseILi32ELb1ELb1EE7to_charEv", metadata !152, i32 1663, metadata !602, i1 false, i1 false, i32 0, i32 0, null, i32 256, i1 false, null, null, i32 0, metadata !85, i32 1663} ; [ DW_TAG_subprogram ]
!602 = metadata !{i32 786453, i32 0, metadata !"", i32 0, i32 0, i64 0, i64 0, i64 0, i32 0, null, metadata !603, i32 0, i32 0} ; [ DW_TAG_subroutine_type ]
!603 = metadata !{metadata !200, metadata !594}
!604 = metadata !{i32 786478, i32 0, metadata !463, metadata !"to_ushort", metadata !"to_ushort", metadata !"_ZNK11ap_int_baseILi32ELb1ELb1EE9to_ushortEv", metadata !152, i32 1664, metadata !605, i1 false, i1 false, i32 0, i32 0, null, i32 256, i1 false, null, null, i32 0, metadata !85, i32 1664} ; [ DW_TAG_subprogram ]
!605 = metadata !{i32 786453, i32 0, metadata !"", i32 0, i32 0, i64 0, i64 0, i64 0, i32 0, null, metadata !606, i32 0, i32 0} ; [ DW_TAG_subroutine_type ]
!606 = metadata !{metadata !212, metadata !594}
!607 = metadata !{i32 786478, i32 0, metadata !463, metadata !"to_short", metadata !"to_short", metadata !"_ZNK11ap_int_baseILi32ELb1ELb1EE8to_shortEv", metadata !152, i32 1665, metadata !608, i1 false, i1 false, i32 0, i32 0, null, i32 256, i1 false, null, null, i32 0, metadata !85, i32 1665} ; [ DW_TAG_subprogram ]
!608 = metadata !{i32 786453, i32 0, metadata !"", i32 0, i32 0, i64 0, i64 0, i64 0, i32 0, null, metadata !609, i32 0, i32 0} ; [ DW_TAG_subroutine_type ]
!609 = metadata !{metadata !208, metadata !594}
!610 = metadata !{i32 786478, i32 0, metadata !463, metadata !"to_int", metadata !"to_int", metadata !"_ZNK11ap_int_baseILi32ELb1ELb1EE6to_intEv", metadata !152, i32 1666, metadata !611, i1 false, i1 false, i32 0, i32 0, null, i32 256, i1 false, null, null, i32 0, metadata !85, i32 1666} ; [ DW_TAG_subprogram ]
!611 = metadata !{i32 786453, i32 0, metadata !"", i32 0, i32 0, i64 0, i64 0, i64 0, i32 0, null, metadata !612, i32 0, i32 0} ; [ DW_TAG_subroutine_type ]
!612 = metadata !{metadata !80, metadata !594}
!613 = metadata !{i32 786478, i32 0, metadata !463, metadata !"to_uint", metadata !"to_uint", metadata !"_ZNK11ap_int_baseILi32ELb1ELb1EE7to_uintEv", metadata !152, i32 1667, metadata !614, i1 false, i1 false, i32 0, i32 0, null, i32 256, i1 false, null, null, i32 0, metadata !85, i32 1667} ; [ DW_TAG_subprogram ]
!614 = metadata !{i32 786453, i32 0, metadata !"", i32 0, i32 0, i64 0, i64 0, i64 0, i32 0, null, metadata !615, i32 0, i32 0} ; [ DW_TAG_subroutine_type ]
!615 = metadata !{metadata !78, metadata !594}
!616 = metadata !{i32 786478, i32 0, metadata !463, metadata !"to_long", metadata !"to_long", metadata !"_ZNK11ap_int_baseILi32ELb1ELb1EE7to_longEv", metadata !152, i32 1668, metadata !617, i1 false, i1 false, i32 0, i32 0, null, i32 256, i1 false, null, null, i32 0, metadata !85, i32 1668} ; [ DW_TAG_subprogram ]
!617 = metadata !{i32 786453, i32 0, metadata !"", i32 0, i32 0, i64 0, i64 0, i64 0, i32 0, null, metadata !618, i32 0, i32 0} ; [ DW_TAG_subroutine_type ]
!618 = metadata !{metadata !222, metadata !594}
!619 = metadata !{i32 786478, i32 0, metadata !463, metadata !"to_ulong", metadata !"to_ulong", metadata !"_ZNK11ap_int_baseILi32ELb1ELb1EE8to_ulongEv", metadata !152, i32 1669, metadata !620, i1 false, i1 false, i32 0, i32 0, null, i32 256, i1 false, null, null, i32 0, metadata !85, i32 1669} ; [ DW_TAG_subprogram ]
!620 = metadata !{i32 786453, i32 0, metadata !"", i32 0, i32 0, i64 0, i64 0, i64 0, i32 0, null, metadata !621, i32 0, i32 0} ; [ DW_TAG_subroutine_type ]
!621 = metadata !{metadata !226, metadata !594}
!622 = metadata !{i32 786478, i32 0, metadata !463, metadata !"to_int64", metadata !"to_int64", metadata !"_ZNK11ap_int_baseILi32ELb1ELb1EE8to_int64Ev", metadata !152, i32 1670, metadata !623, i1 false, i1 false, i32 0, i32 0, null, i32 256, i1 false, null, null, i32 0, metadata !85, i32 1670} ; [ DW_TAG_subprogram ]
!623 = metadata !{i32 786453, i32 0, metadata !"", i32 0, i32 0, i64 0, i64 0, i64 0, i32 0, null, metadata !624, i32 0, i32 0} ; [ DW_TAG_subroutine_type ]
!624 = metadata !{metadata !230, metadata !594}
!625 = metadata !{i32 786478, i32 0, metadata !463, metadata !"to_uint64", metadata !"to_uint64", metadata !"_ZNK11ap_int_baseILi32ELb1ELb1EE9to_uint64Ev", metadata !152, i32 1671, metadata !626, i1 false, i1 false, i32 0, i32 0, null, i32 256, i1 false, null, null, i32 0, metadata !85, i32 1671} ; [ DW_TAG_subprogram ]
!626 = metadata !{i32 786453, i32 0, metadata !"", i32 0, i32 0, i64 0, i64 0, i64 0, i32 0, null, metadata !627, i32 0, i32 0} ; [ DW_TAG_subroutine_type ]
!627 = metadata !{metadata !235, metadata !594}
!628 = metadata !{i32 786478, i32 0, metadata !463, metadata !"to_double", metadata !"to_double", metadata !"_ZNK11ap_int_baseILi32ELb1ELb1EE9to_doubleEv", metadata !152, i32 1672, metadata !629, i1 false, i1 false, i32 0, i32 0, null, i32 256, i1 false, null, null, i32 0, metadata !85, i32 1672} ; [ DW_TAG_subprogram ]
!629 = metadata !{i32 786453, i32 0, metadata !"", i32 0, i32 0, i64 0, i64 0, i64 0, i32 0, null, metadata !630, i32 0, i32 0} ; [ DW_TAG_subroutine_type ]
!630 = metadata !{metadata !249, metadata !594}
!631 = metadata !{i32 786478, i32 0, metadata !463, metadata !"length", metadata !"length", metadata !"_ZNK11ap_int_baseILi32ELb1ELb1EE6lengthEv", metadata !152, i32 1686, metadata !611, i1 false, i1 false, i32 0, i32 0, null, i32 256, i1 false, null, null, i32 0, metadata !85, i32 1686} ; [ DW_TAG_subprogram ]
!632 = metadata !{i32 786478, i32 0, metadata !463, metadata !"length", metadata !"length", metadata !"_ZNVK11ap_int_baseILi32ELb1ELb1EE6lengthEv", metadata !152, i32 1687, metadata !633, i1 false, i1 false, i32 0, i32 0, null, i32 256, i1 false, null, null, i32 0, metadata !85, i32 1687} ; [ DW_TAG_subprogram ]
!633 = metadata !{i32 786453, i32 0, metadata !"", i32 0, i32 0, i64 0, i64 0, i64 0, i32 0, null, metadata !634, i32 0, i32 0} ; [ DW_TAG_subroutine_type ]
!634 = metadata !{metadata !80, metadata !635}
!635 = metadata !{i32 786447, i32 0, metadata !"", i32 0, i32 0, i64 64, i64 64, i64 0, i32 64, metadata !488} ; [ DW_TAG_pointer_type ]
!636 = metadata !{i32 786478, i32 0, metadata !463, metadata !"reverse", metadata !"reverse", metadata !"_ZN11ap_int_baseILi32ELb1ELb1EE7reverseEv", metadata !152, i32 1692, metadata !637, i1 false, i1 false, i32 0, i32 0, null, i32 256, i1 false, null, null, i32 0, metadata !85, i32 1692} ; [ DW_TAG_subprogram ]
!637 = metadata !{i32 786453, i32 0, metadata !"", i32 0, i32 0, i64 0, i64 0, i64 0, i32 0, null, metadata !638, i32 0, i32 0} ; [ DW_TAG_subroutine_type ]
!638 = metadata !{metadata !552, metadata !478}
!639 = metadata !{i32 786478, i32 0, metadata !463, metadata !"iszero", metadata !"iszero", metadata !"_ZNK11ap_int_baseILi32ELb1ELb1EE6iszeroEv", metadata !152, i32 1698, metadata !596, i1 false, i1 false, i32 0, i32 0, null, i32 256, i1 false, null, null, i32 0, metadata !85, i32 1698} ; [ DW_TAG_subprogram ]
!640 = metadata !{i32 786478, i32 0, metadata !463, metadata !"is_zero", metadata !"is_zero", metadata !"_ZNK11ap_int_baseILi32ELb1ELb1EE7is_zeroEv", metadata !152, i32 1703, metadata !596, i1 false, i1 false, i32 0, i32 0, null, i32 256, i1 false, null, null, i32 0, metadata !85, i32 1703} ; [ DW_TAG_subprogram ]
!641 = metadata !{i32 786478, i32 0, metadata !463, metadata !"sign", metadata !"sign", metadata !"_ZNK11ap_int_baseILi32ELb1ELb1EE4signEv", metadata !152, i32 1708, metadata !596, i1 false, i1 false, i32 0, i32 0, null, i32 256, i1 false, null, null, i32 0, metadata !85, i32 1708} ; [ DW_TAG_subprogram ]
!642 = metadata !{i32 786478, i32 0, metadata !463, metadata !"clear", metadata !"clear", metadata !"_ZN11ap_int_baseILi32ELb1ELb1EE5clearEi", metadata !152, i32 1716, metadata !506, i1 false, i1 false, i32 0, i32 0, null, i32 256, i1 false, null, null, i32 0, metadata !85, i32 1716} ; [ DW_TAG_subprogram ]
!643 = metadata !{i32 786478, i32 0, metadata !463, metadata !"invert", metadata !"invert", metadata !"_ZN11ap_int_baseILi32ELb1ELb1EE6invertEi", metadata !152, i32 1722, metadata !506, i1 false, i1 false, i32 0, i32 0, null, i32 256, i1 false, null, null, i32 0, metadata !85, i32 1722} ; [ DW_TAG_subprogram ]
!644 = metadata !{i32 786478, i32 0, metadata !463, metadata !"test", metadata !"test", metadata !"_ZNK11ap_int_baseILi32ELb1ELb1EE4testEi", metadata !152, i32 1730, metadata !645, i1 false, i1 false, i32 0, i32 0, null, i32 256, i1 false, null, null, i32 0, metadata !85, i32 1730} ; [ DW_TAG_subprogram ]
!645 = metadata !{i32 786453, i32 0, metadata !"", i32 0, i32 0, i64 0, i64 0, i64 0, i32 0, null, metadata !646, i32 0, i32 0} ; [ DW_TAG_subroutine_type ]
!646 = metadata !{metadata !113, metadata !594, metadata !80}
!647 = metadata !{i32 786478, i32 0, metadata !463, metadata !"set", metadata !"set", metadata !"_ZN11ap_int_baseILi32ELb1ELb1EE3setEi", metadata !152, i32 1736, metadata !506, i1 false, i1 false, i32 0, i32 0, null, i32 256, i1 false, null, null, i32 0, metadata !85, i32 1736} ; [ DW_TAG_subprogram ]
!648 = metadata !{i32 786478, i32 0, metadata !463, metadata !"set", metadata !"set", metadata !"_ZN11ap_int_baseILi32ELb1ELb1EE3setEib", metadata !152, i32 1742, metadata !649, i1 false, i1 false, i32 0, i32 0, null, i32 256, i1 false, null, null, i32 0, metadata !85, i32 1742} ; [ DW_TAG_subprogram ]
!649 = metadata !{i32 786453, i32 0, metadata !"", i32 0, i32 0, i64 0, i64 0, i64 0, i32 0, null, metadata !650, i32 0, i32 0} ; [ DW_TAG_subroutine_type ]
!650 = metadata !{null, metadata !478, metadata !80, metadata !113}
!651 = metadata !{i32 786478, i32 0, metadata !463, metadata !"lrotate", metadata !"lrotate", metadata !"_ZN11ap_int_baseILi32ELb1ELb1EE7lrotateEi", metadata !152, i32 1749, metadata !506, i1 false, i1 false, i32 0, i32 0, null, i32 256, i1 false, null, null, i32 0, metadata !85, i32 1749} ; [ DW_TAG_subprogram ]
!652 = metadata !{i32 786478, i32 0, metadata !463, metadata !"rrotate", metadata !"rrotate", metadata !"_ZN11ap_int_baseILi32ELb1ELb1EE7rrotateEi", metadata !152, i32 1758, metadata !506, i1 false, i1 false, i32 0, i32 0, null, i32 256, i1 false, null, null, i32 0, metadata !85, i32 1758} ; [ DW_TAG_subprogram ]
!653 = metadata !{i32 786478, i32 0, metadata !463, metadata !"set_bit", metadata !"set_bit", metadata !"_ZN11ap_int_baseILi32ELb1ELb1EE7set_bitEib", metadata !152, i32 1766, metadata !649, i1 false, i1 false, i32 0, i32 0, null, i32 256, i1 false, null, null, i32 0, metadata !85, i32 1766} ; [ DW_TAG_subprogram ]
!654 = metadata !{i32 786478, i32 0, metadata !463, metadata !"get_bit", metadata !"get_bit", metadata !"_ZNK11ap_int_baseILi32ELb1ELb1EE7get_bitEi", metadata !152, i32 1771, metadata !645, i1 false, i1 false, i32 0, i32 0, null, i32 256, i1 false, null, null, i32 0, metadata !85, i32 1771} ; [ DW_TAG_subprogram ]
!655 = metadata !{i32 786478, i32 0, metadata !463, metadata !"b_not", metadata !"b_not", metadata !"_ZN11ap_int_baseILi32ELb1ELb1EE5b_notEv", metadata !152, i32 1776, metadata !476, i1 false, i1 false, i32 0, i32 0, null, i32 256, i1 false, null, null, i32 0, metadata !85, i32 1776} ; [ DW_TAG_subprogram ]
!656 = metadata !{i32 786478, i32 0, metadata !463, metadata !"countLeadingZeros", metadata !"countLeadingZeros", metadata !"_ZN11ap_int_baseILi32ELb1ELb1EE17countLeadingZerosEv", metadata !152, i32 1783, metadata !657, i1 false, i1 false, i32 0, i32 0, null, i32 256, i1 false, null, null, i32 0, metadata !85, i32 1783} ; [ DW_TAG_subprogram ]
!657 = metadata !{i32 786453, i32 0, metadata !"", i32 0, i32 0, i64 0, i64 0, i64 0, i32 0, null, metadata !658, i32 0, i32 0} ; [ DW_TAG_subroutine_type ]
!658 = metadata !{metadata !80, metadata !478}
!659 = metadata !{i32 786478, i32 0, metadata !463, metadata !"operator++", metadata !"operator++", metadata !"_ZN11ap_int_baseILi32ELb1ELb1EEppEv", metadata !152, i32 1840, metadata !637, i1 false, i1 false, i32 0, i32 0, null, i32 256, i1 false, null, null, i32 0, metadata !85, i32 1840} ; [ DW_TAG_subprogram ]
!660 = metadata !{i32 786478, i32 0, metadata !463, metadata !"operator--", metadata !"operator--", metadata !"_ZN11ap_int_baseILi32ELb1ELb1EEmmEv", metadata !152, i32 1844, metadata !637, i1 false, i1 false, i32 0, i32 0, null, i32 256, i1 false, null, null, i32 0, metadata !85, i32 1844} ; [ DW_TAG_subprogram ]
!661 = metadata !{i32 786478, i32 0, metadata !463, metadata !"operator++", metadata !"operator++", metadata !"_ZN11ap_int_baseILi32ELb1ELb1EEppEi", metadata !152, i32 1852, metadata !662, i1 false, i1 false, i32 0, i32 0, null, i32 256, i1 false, null, null, i32 0, metadata !85, i32 1852} ; [ DW_TAG_subprogram ]
!662 = metadata !{i32 786453, i32 0, metadata !"", i32 0, i32 0, i64 0, i64 0, i64 0, i32 0, null, metadata !663, i32 0, i32 0} ; [ DW_TAG_subroutine_type ]
!663 = metadata !{metadata !462, metadata !478, metadata !80}
!664 = metadata !{i32 786478, i32 0, metadata !463, metadata !"operator--", metadata !"operator--", metadata !"_ZN11ap_int_baseILi32ELb1ELb1EEmmEi", metadata !152, i32 1857, metadata !662, i1 false, i1 false, i32 0, i32 0, null, i32 256, i1 false, null, null, i32 0, metadata !85, i32 1857} ; [ DW_TAG_subprogram ]
!665 = metadata !{i32 786478, i32 0, metadata !463, metadata !"operator+", metadata !"operator+", metadata !"_ZNK11ap_int_baseILi32ELb1ELb1EEpsEv", metadata !152, i32 1866, metadata !666, i1 false, i1 false, i32 0, i32 0, null, i32 256, i1 false, null, null, i32 0, metadata !85, i32 1866} ; [ DW_TAG_subprogram ]
!666 = metadata !{i32 786453, i32 0, metadata !"", i32 0, i32 0, i64 0, i64 0, i64 0, i32 0, null, metadata !667, i32 0, i32 0} ; [ DW_TAG_subroutine_type ]
!667 = metadata !{metadata !463, metadata !594}
!668 = metadata !{i32 786478, i32 0, metadata !463, metadata !"operator!", metadata !"operator!", metadata !"_ZNK11ap_int_baseILi32ELb1ELb1EEntEv", metadata !152, i32 1872, metadata !596, i1 false, i1 false, i32 0, i32 0, null, i32 256, i1 false, null, null, i32 0, metadata !85, i32 1872} ; [ DW_TAG_subprogram ]
!669 = metadata !{i32 786478, i32 0, metadata !463, metadata !"operator-", metadata !"operator-", metadata !"_ZNK11ap_int_baseILi32ELb1ELb1EEngEv", metadata !152, i32 1877, metadata !670, i1 false, i1 false, i32 0, i32 0, null, i32 256, i1 false, null, null, i32 0, metadata !85, i32 1877} ; [ DW_TAG_subprogram ]
!670 = metadata !{i32 786453, i32 0, metadata !"", i32 0, i32 0, i64 0, i64 0, i64 0, i32 0, null, metadata !671, i32 0, i32 0} ; [ DW_TAG_subroutine_type ]
!671 = metadata !{metadata !672, metadata !594}
!672 = metadata !{i32 786434, null, metadata !"ap_int_base<33, true, true>", metadata !152, i32 1398, i64 64, i64 64, i32 0, i32 0, null, metadata !673, i32 0, null, metadata !959} ; [ DW_TAG_class_type ]
!673 = metadata !{metadata !674, metadata !685, metadata !689, metadata !696, metadata !702, metadata !705, metadata !708, metadata !711, metadata !714, metadata !717, metadata !720, metadata !723, metadata !726, metadata !729, metadata !732, metadata !735, metadata !738, metadata !741, metadata !744, metadata !747, metadata !750, metadata !754, metadata !757, metadata !760, metadata !761, metadata !765, metadata !768, metadata !771, metadata !774, metadata !777, metadata !780, metadata !783, metadata !786, metadata !789, metadata !792, metadata !795, metadata !798, metadata !807, metadata !810, metadata !813, metadata !816, metadata !819, metadata !822, metadata !825, metadata !828, metadata !831, metadata !834, metadata !837, metadata !840, metadata !843, metadata !844, metadata !848, metadata !851, metadata !852, metadata !853, metadata !854, metadata !855, metadata !856, metadata !859, metadata !860, metadata !863, metadata !864, metadata !865, metadata !866, metadata !867, metadata !868, metadata !871, metadata !872, metadata !873, metadata !876, metadata !877, metadata !880, metadata !881, metadata !885, metadata !889, metadata !890, metadata !893, metadata !894, metadata !933, metadata !934, metadata !935, metadata !936, metadata !939, metadata !940, metadata !941, metadata !942, metadata !943, metadata !944, metadata !945, metadata !946, metadata !947, metadata !948, metadata !949, metadata !950, metadata !953, metadata !956}
!674 = metadata !{i32 786460, metadata !672, null, metadata !152, i32 0, i64 0, i64 0, i64 0, i32 0, metadata !675} ; [ DW_TAG_inheritance ]
!675 = metadata !{i32 786434, null, metadata !"ssdm_int<33 + 1024 * 0, true>", metadata !160, i32 35, i64 64, i64 64, i32 0, i32 0, null, metadata !676, i32 0, null, metadata !683} ; [ DW_TAG_class_type ]
!676 = metadata !{metadata !677, metadata !679}
!677 = metadata !{i32 786445, metadata !675, metadata !"V", metadata !160, i32 35, i64 33, i64 64, i64 0, i32 0, metadata !678} ; [ DW_TAG_member ]
!678 = metadata !{i32 786468, null, metadata !"int33", null, i32 0, i64 33, i64 64, i64 0, i32 0, i32 5} ; [ DW_TAG_base_type ]
!679 = metadata !{i32 786478, i32 0, metadata !675, metadata !"ssdm_int", metadata !"ssdm_int", metadata !"", metadata !160, i32 35, metadata !680, i1 false, i1 false, i32 0, i32 0, null, i32 256, i1 false, null, null, i32 0, metadata !85, i32 35} ; [ DW_TAG_subprogram ]
!680 = metadata !{i32 786453, i32 0, metadata !"", i32 0, i32 0, i64 0, i64 0, i64 0, i32 0, null, metadata !681, i32 0, i32 0} ; [ DW_TAG_subroutine_type ]
!681 = metadata !{null, metadata !682}
!682 = metadata !{i32 786447, i32 0, metadata !"", i32 0, i32 0, i64 64, i64 64, i64 0, i32 64, metadata !675} ; [ DW_TAG_pointer_type ]
!683 = metadata !{metadata !684, metadata !175}
!684 = metadata !{i32 786480, null, metadata !"_AP_N", metadata !80, i64 33, null, i32 0, i32 0} ; [ DW_TAG_template_value_parameter ]
!685 = metadata !{i32 786478, i32 0, metadata !672, metadata !"ap_int_base", metadata !"ap_int_base", metadata !"", metadata !152, i32 1439, metadata !686, i1 false, i1 false, i32 0, i32 0, null, i32 256, i1 false, null, null, i32 0, metadata !85, i32 1439} ; [ DW_TAG_subprogram ]
!686 = metadata !{i32 786453, i32 0, metadata !"", i32 0, i32 0, i64 0, i64 0, i64 0, i32 0, null, metadata !687, i32 0, i32 0} ; [ DW_TAG_subroutine_type ]
!687 = metadata !{null, metadata !688}
!688 = metadata !{i32 786447, i32 0, metadata !"", i32 0, i32 0, i64 64, i64 64, i64 0, i32 64, metadata !672} ; [ DW_TAG_pointer_type ]
!689 = metadata !{i32 786478, i32 0, metadata !672, metadata !"ap_int_base<33, true>", metadata !"ap_int_base<33, true>", metadata !"", metadata !152, i32 1451, metadata !690, i1 false, i1 false, i32 0, i32 0, null, i32 256, i1 false, null, metadata !694, i32 0, metadata !85, i32 1451} ; [ DW_TAG_subprogram ]
!690 = metadata !{i32 786453, i32 0, metadata !"", i32 0, i32 0, i64 0, i64 0, i64 0, i32 0, null, metadata !691, i32 0, i32 0} ; [ DW_TAG_subroutine_type ]
!691 = metadata !{null, metadata !688, metadata !692}
!692 = metadata !{i32 786448, null, null, null, i32 0, i64 0, i64 0, i64 0, i32 0, metadata !693} ; [ DW_TAG_reference_type ]
!693 = metadata !{i32 786470, null, metadata !"", null, i32 0, i64 0, i64 0, i64 0, i32 0, metadata !672} ; [ DW_TAG_const_type ]
!694 = metadata !{metadata !695, metadata !187}
!695 = metadata !{i32 786480, null, metadata !"_AP_W2", metadata !80, i64 33, null, i32 0, i32 0} ; [ DW_TAG_template_value_parameter ]
!696 = metadata !{i32 786478, i32 0, metadata !672, metadata !"ap_int_base<33, true>", metadata !"ap_int_base<33, true>", metadata !"", metadata !152, i32 1454, metadata !697, i1 false, i1 false, i32 0, i32 0, null, i32 256, i1 false, null, metadata !694, i32 0, metadata !85, i32 1454} ; [ DW_TAG_subprogram ]
!697 = metadata !{i32 786453, i32 0, metadata !"", i32 0, i32 0, i64 0, i64 0, i64 0, i32 0, null, metadata !698, i32 0, i32 0} ; [ DW_TAG_subroutine_type ]
!698 = metadata !{null, metadata !688, metadata !699}
!699 = metadata !{i32 786448, null, null, null, i32 0, i64 0, i64 0, i64 0, i32 0, metadata !700} ; [ DW_TAG_reference_type ]
!700 = metadata !{i32 786470, null, metadata !"", null, i32 0, i64 0, i64 0, i64 0, i32 0, metadata !701} ; [ DW_TAG_const_type ]
!701 = metadata !{i32 786485, null, metadata !"", null, i32 0, i64 0, i64 0, i64 0, i32 0, metadata !672} ; [ DW_TAG_volatile_type ]
!702 = metadata !{i32 786478, i32 0, metadata !672, metadata !"ap_int_base", metadata !"ap_int_base", metadata !"", metadata !152, i32 1461, metadata !703, i1 false, i1 false, i32 0, i32 0, null, i32 384, i1 false, null, null, i32 0, metadata !85, i32 1461} ; [ DW_TAG_subprogram ]
!703 = metadata !{i32 786453, i32 0, metadata !"", i32 0, i32 0, i64 0, i64 0, i64 0, i32 0, null, metadata !704, i32 0, i32 0} ; [ DW_TAG_subroutine_type ]
!704 = metadata !{null, metadata !688, metadata !113}
!705 = metadata !{i32 786478, i32 0, metadata !672, metadata !"ap_int_base", metadata !"ap_int_base", metadata !"", metadata !152, i32 1462, metadata !706, i1 false, i1 false, i32 0, i32 0, null, i32 384, i1 false, null, null, i32 0, metadata !85, i32 1462} ; [ DW_TAG_subprogram ]
!706 = metadata !{i32 786453, i32 0, metadata !"", i32 0, i32 0, i64 0, i64 0, i64 0, i32 0, null, metadata !707, i32 0, i32 0} ; [ DW_TAG_subroutine_type ]
!707 = metadata !{null, metadata !688, metadata !200}
!708 = metadata !{i32 786478, i32 0, metadata !672, metadata !"ap_int_base", metadata !"ap_int_base", metadata !"", metadata !152, i32 1463, metadata !709, i1 false, i1 false, i32 0, i32 0, null, i32 384, i1 false, null, null, i32 0, metadata !85, i32 1463} ; [ DW_TAG_subprogram ]
!709 = metadata !{i32 786453, i32 0, metadata !"", i32 0, i32 0, i64 0, i64 0, i64 0, i32 0, null, metadata !710, i32 0, i32 0} ; [ DW_TAG_subroutine_type ]
!710 = metadata !{null, metadata !688, metadata !204}
!711 = metadata !{i32 786478, i32 0, metadata !672, metadata !"ap_int_base", metadata !"ap_int_base", metadata !"", metadata !152, i32 1464, metadata !712, i1 false, i1 false, i32 0, i32 0, null, i32 384, i1 false, null, null, i32 0, metadata !85, i32 1464} ; [ DW_TAG_subprogram ]
!712 = metadata !{i32 786453, i32 0, metadata !"", i32 0, i32 0, i64 0, i64 0, i64 0, i32 0, null, metadata !713, i32 0, i32 0} ; [ DW_TAG_subroutine_type ]
!713 = metadata !{null, metadata !688, metadata !208}
!714 = metadata !{i32 786478, i32 0, metadata !672, metadata !"ap_int_base", metadata !"ap_int_base", metadata !"", metadata !152, i32 1465, metadata !715, i1 false, i1 false, i32 0, i32 0, null, i32 384, i1 false, null, null, i32 0, metadata !85, i32 1465} ; [ DW_TAG_subprogram ]
!715 = metadata !{i32 786453, i32 0, metadata !"", i32 0, i32 0, i64 0, i64 0, i64 0, i32 0, null, metadata !716, i32 0, i32 0} ; [ DW_TAG_subroutine_type ]
!716 = metadata !{null, metadata !688, metadata !212}
!717 = metadata !{i32 786478, i32 0, metadata !672, metadata !"ap_int_base", metadata !"ap_int_base", metadata !"", metadata !152, i32 1466, metadata !718, i1 false, i1 false, i32 0, i32 0, null, i32 384, i1 false, null, null, i32 0, metadata !85, i32 1466} ; [ DW_TAG_subprogram ]
!718 = metadata !{i32 786453, i32 0, metadata !"", i32 0, i32 0, i64 0, i64 0, i64 0, i32 0, null, metadata !719, i32 0, i32 0} ; [ DW_TAG_subroutine_type ]
!719 = metadata !{null, metadata !688, metadata !80}
!720 = metadata !{i32 786478, i32 0, metadata !672, metadata !"ap_int_base", metadata !"ap_int_base", metadata !"", metadata !152, i32 1467, metadata !721, i1 false, i1 false, i32 0, i32 0, null, i32 384, i1 false, null, null, i32 0, metadata !85, i32 1467} ; [ DW_TAG_subprogram ]
!721 = metadata !{i32 786453, i32 0, metadata !"", i32 0, i32 0, i64 0, i64 0, i64 0, i32 0, null, metadata !722, i32 0, i32 0} ; [ DW_TAG_subroutine_type ]
!722 = metadata !{null, metadata !688, metadata !78}
!723 = metadata !{i32 786478, i32 0, metadata !672, metadata !"ap_int_base", metadata !"ap_int_base", metadata !"", metadata !152, i32 1468, metadata !724, i1 false, i1 false, i32 0, i32 0, null, i32 384, i1 false, null, null, i32 0, metadata !85, i32 1468} ; [ DW_TAG_subprogram ]
!724 = metadata !{i32 786453, i32 0, metadata !"", i32 0, i32 0, i64 0, i64 0, i64 0, i32 0, null, metadata !725, i32 0, i32 0} ; [ DW_TAG_subroutine_type ]
!725 = metadata !{null, metadata !688, metadata !222}
!726 = metadata !{i32 786478, i32 0, metadata !672, metadata !"ap_int_base", metadata !"ap_int_base", metadata !"", metadata !152, i32 1469, metadata !727, i1 false, i1 false, i32 0, i32 0, null, i32 384, i1 false, null, null, i32 0, metadata !85, i32 1469} ; [ DW_TAG_subprogram ]
!727 = metadata !{i32 786453, i32 0, metadata !"", i32 0, i32 0, i64 0, i64 0, i64 0, i32 0, null, metadata !728, i32 0, i32 0} ; [ DW_TAG_subroutine_type ]
!728 = metadata !{null, metadata !688, metadata !226}
!729 = metadata !{i32 786478, i32 0, metadata !672, metadata !"ap_int_base", metadata !"ap_int_base", metadata !"", metadata !152, i32 1470, metadata !730, i1 false, i1 false, i32 0, i32 0, null, i32 384, i1 false, null, null, i32 0, metadata !85, i32 1470} ; [ DW_TAG_subprogram ]
!730 = metadata !{i32 786453, i32 0, metadata !"", i32 0, i32 0, i64 0, i64 0, i64 0, i32 0, null, metadata !731, i32 0, i32 0} ; [ DW_TAG_subroutine_type ]
!731 = metadata !{null, metadata !688, metadata !230}
!732 = metadata !{i32 786478, i32 0, metadata !672, metadata !"ap_int_base", metadata !"ap_int_base", metadata !"", metadata !152, i32 1471, metadata !733, i1 false, i1 false, i32 0, i32 0, null, i32 384, i1 false, null, null, i32 0, metadata !85, i32 1471} ; [ DW_TAG_subprogram ]
!733 = metadata !{i32 786453, i32 0, metadata !"", i32 0, i32 0, i64 0, i64 0, i64 0, i32 0, null, metadata !734, i32 0, i32 0} ; [ DW_TAG_subroutine_type ]
!734 = metadata !{null, metadata !688, metadata !235}
!735 = metadata !{i32 786478, i32 0, metadata !672, metadata !"ap_int_base", metadata !"ap_int_base", metadata !"", metadata !152, i32 1472, metadata !736, i1 false, i1 false, i32 0, i32 0, null, i32 384, i1 false, null, null, i32 0, metadata !85, i32 1472} ; [ DW_TAG_subprogram ]
!736 = metadata !{i32 786453, i32 0, metadata !"", i32 0, i32 0, i64 0, i64 0, i64 0, i32 0, null, metadata !737, i32 0, i32 0} ; [ DW_TAG_subroutine_type ]
!737 = metadata !{null, metadata !688, metadata !240}
!738 = metadata !{i32 786478, i32 0, metadata !672, metadata !"ap_int_base", metadata !"ap_int_base", metadata !"", metadata !152, i32 1473, metadata !739, i1 false, i1 false, i32 0, i32 0, null, i32 384, i1 false, null, null, i32 0, metadata !85, i32 1473} ; [ DW_TAG_subprogram ]
!739 = metadata !{i32 786453, i32 0, metadata !"", i32 0, i32 0, i64 0, i64 0, i64 0, i32 0, null, metadata !740, i32 0, i32 0} ; [ DW_TAG_subroutine_type ]
!740 = metadata !{null, metadata !688, metadata !245}
!741 = metadata !{i32 786478, i32 0, metadata !672, metadata !"ap_int_base", metadata !"ap_int_base", metadata !"", metadata !152, i32 1474, metadata !742, i1 false, i1 false, i32 0, i32 0, null, i32 384, i1 false, null, null, i32 0, metadata !85, i32 1474} ; [ DW_TAG_subprogram ]
!742 = metadata !{i32 786453, i32 0, metadata !"", i32 0, i32 0, i64 0, i64 0, i64 0, i32 0, null, metadata !743, i32 0, i32 0} ; [ DW_TAG_subroutine_type ]
!743 = metadata !{null, metadata !688, metadata !249}
!744 = metadata !{i32 786478, i32 0, metadata !672, metadata !"ap_int_base", metadata !"ap_int_base", metadata !"", metadata !152, i32 1501, metadata !745, i1 false, i1 false, i32 0, i32 0, null, i32 256, i1 false, null, null, i32 0, metadata !85, i32 1501} ; [ DW_TAG_subprogram ]
!745 = metadata !{i32 786453, i32 0, metadata !"", i32 0, i32 0, i64 0, i64 0, i64 0, i32 0, null, metadata !746, i32 0, i32 0} ; [ DW_TAG_subroutine_type ]
!746 = metadata !{null, metadata !688, metadata !90}
!747 = metadata !{i32 786478, i32 0, metadata !672, metadata !"ap_int_base", metadata !"ap_int_base", metadata !"", metadata !152, i32 1508, metadata !748, i1 false, i1 false, i32 0, i32 0, null, i32 256, i1 false, null, null, i32 0, metadata !85, i32 1508} ; [ DW_TAG_subprogram ]
!748 = metadata !{i32 786453, i32 0, metadata !"", i32 0, i32 0, i64 0, i64 0, i64 0, i32 0, null, metadata !749, i32 0, i32 0} ; [ DW_TAG_subroutine_type ]
!749 = metadata !{null, metadata !688, metadata !90, metadata !200}
!750 = metadata !{i32 786478, i32 0, metadata !672, metadata !"read", metadata !"read", metadata !"_ZNV11ap_int_baseILi33ELb1ELb1EE4readEv", metadata !152, i32 1529, metadata !751, i1 false, i1 false, i32 0, i32 0, null, i32 256, i1 false, null, null, i32 0, metadata !85, i32 1529} ; [ DW_TAG_subprogram ]
!751 = metadata !{i32 786453, i32 0, metadata !"", i32 0, i32 0, i64 0, i64 0, i64 0, i32 0, null, metadata !752, i32 0, i32 0} ; [ DW_TAG_subroutine_type ]
!752 = metadata !{metadata !672, metadata !753}
!753 = metadata !{i32 786447, i32 0, metadata !"", i32 0, i32 0, i64 64, i64 64, i64 0, i32 64, metadata !701} ; [ DW_TAG_pointer_type ]
!754 = metadata !{i32 786478, i32 0, metadata !672, metadata !"write", metadata !"write", metadata !"_ZNV11ap_int_baseILi33ELb1ELb1EE5writeERKS0_", metadata !152, i32 1535, metadata !755, i1 false, i1 false, i32 0, i32 0, null, i32 256, i1 false, null, null, i32 0, metadata !85, i32 1535} ; [ DW_TAG_subprogram ]
!755 = metadata !{i32 786453, i32 0, metadata !"", i32 0, i32 0, i64 0, i64 0, i64 0, i32 0, null, metadata !756, i32 0, i32 0} ; [ DW_TAG_subroutine_type ]
!756 = metadata !{null, metadata !753, metadata !692}
!757 = metadata !{i32 786478, i32 0, metadata !672, metadata !"operator=", metadata !"operator=", metadata !"_ZNV11ap_int_baseILi33ELb1ELb1EEaSERVKS0_", metadata !152, i32 1547, metadata !758, i1 false, i1 false, i32 0, i32 0, null, i32 256, i1 false, null, null, i32 0, metadata !85, i32 1547} ; [ DW_TAG_subprogram ]
!758 = metadata !{i32 786453, i32 0, metadata !"", i32 0, i32 0, i64 0, i64 0, i64 0, i32 0, null, metadata !759, i32 0, i32 0} ; [ DW_TAG_subroutine_type ]
!759 = metadata !{null, metadata !753, metadata !699}
!760 = metadata !{i32 786478, i32 0, metadata !672, metadata !"operator=", metadata !"operator=", metadata !"_ZNV11ap_int_baseILi33ELb1ELb1EEaSERKS0_", metadata !152, i32 1556, metadata !755, i1 false, i1 false, i32 0, i32 0, null, i32 256, i1 false, null, null, i32 0, metadata !85, i32 1556} ; [ DW_TAG_subprogram ]
!761 = metadata !{i32 786478, i32 0, metadata !672, metadata !"operator=", metadata !"operator=", metadata !"_ZN11ap_int_baseILi33ELb1ELb1EEaSERVKS0_", metadata !152, i32 1579, metadata !762, i1 false, i1 false, i32 0, i32 0, null, i32 256, i1 false, null, null, i32 0, metadata !85, i32 1579} ; [ DW_TAG_subprogram ]
!762 = metadata !{i32 786453, i32 0, metadata !"", i32 0, i32 0, i64 0, i64 0, i64 0, i32 0, null, metadata !763, i32 0, i32 0} ; [ DW_TAG_subroutine_type ]
!763 = metadata !{metadata !764, metadata !688, metadata !699}
!764 = metadata !{i32 786448, null, null, null, i32 0, i64 0, i64 0, i64 0, i32 0, metadata !672} ; [ DW_TAG_reference_type ]
!765 = metadata !{i32 786478, i32 0, metadata !672, metadata !"operator=", metadata !"operator=", metadata !"_ZN11ap_int_baseILi33ELb1ELb1EEaSERKS0_", metadata !152, i32 1584, metadata !766, i1 false, i1 false, i32 0, i32 0, null, i32 256, i1 false, null, null, i32 0, metadata !85, i32 1584} ; [ DW_TAG_subprogram ]
!766 = metadata !{i32 786453, i32 0, metadata !"", i32 0, i32 0, i64 0, i64 0, i64 0, i32 0, null, metadata !767, i32 0, i32 0} ; [ DW_TAG_subroutine_type ]
!767 = metadata !{metadata !764, metadata !688, metadata !692}
!768 = metadata !{i32 786478, i32 0, metadata !672, metadata !"operator=", metadata !"operator=", metadata !"_ZN11ap_int_baseILi33ELb1ELb1EEaSEPKc", metadata !152, i32 1588, metadata !769, i1 false, i1 false, i32 0, i32 0, null, i32 256, i1 false, null, null, i32 0, metadata !85, i32 1588} ; [ DW_TAG_subprogram ]
!769 = metadata !{i32 786453, i32 0, metadata !"", i32 0, i32 0, i64 0, i64 0, i64 0, i32 0, null, metadata !770, i32 0, i32 0} ; [ DW_TAG_subroutine_type ]
!770 = metadata !{metadata !764, metadata !688, metadata !90}
!771 = metadata !{i32 786478, i32 0, metadata !672, metadata !"set", metadata !"set", metadata !"_ZN11ap_int_baseILi33ELb1ELb1EE3setEPKca", metadata !152, i32 1596, metadata !772, i1 false, i1 false, i32 0, i32 0, null, i32 256, i1 false, null, null, i32 0, metadata !85, i32 1596} ; [ DW_TAG_subprogram ]
!772 = metadata !{i32 786453, i32 0, metadata !"", i32 0, i32 0, i64 0, i64 0, i64 0, i32 0, null, metadata !773, i32 0, i32 0} ; [ DW_TAG_subroutine_type ]
!773 = metadata !{metadata !764, metadata !688, metadata !90, metadata !200}
!774 = metadata !{i32 786478, i32 0, metadata !672, metadata !"operator=", metadata !"operator=", metadata !"_ZN11ap_int_baseILi33ELb1ELb1EEaSEa", metadata !152, i32 1610, metadata !775, i1 false, i1 false, i32 0, i32 0, null, i32 256, i1 false, null, null, i32 0, metadata !85, i32 1610} ; [ DW_TAG_subprogram ]
!775 = metadata !{i32 786453, i32 0, metadata !"", i32 0, i32 0, i64 0, i64 0, i64 0, i32 0, null, metadata !776, i32 0, i32 0} ; [ DW_TAG_subroutine_type ]
!776 = metadata !{metadata !764, metadata !688, metadata !200}
!777 = metadata !{i32 786478, i32 0, metadata !672, metadata !"operator=", metadata !"operator=", metadata !"_ZN11ap_int_baseILi33ELb1ELb1EEaSEh", metadata !152, i32 1611, metadata !778, i1 false, i1 false, i32 0, i32 0, null, i32 256, i1 false, null, null, i32 0, metadata !85, i32 1611} ; [ DW_TAG_subprogram ]
!778 = metadata !{i32 786453, i32 0, metadata !"", i32 0, i32 0, i64 0, i64 0, i64 0, i32 0, null, metadata !779, i32 0, i32 0} ; [ DW_TAG_subroutine_type ]
!779 = metadata !{metadata !764, metadata !688, metadata !204}
!780 = metadata !{i32 786478, i32 0, metadata !672, metadata !"operator=", metadata !"operator=", metadata !"_ZN11ap_int_baseILi33ELb1ELb1EEaSEs", metadata !152, i32 1612, metadata !781, i1 false, i1 false, i32 0, i32 0, null, i32 256, i1 false, null, null, i32 0, metadata !85, i32 1612} ; [ DW_TAG_subprogram ]
!781 = metadata !{i32 786453, i32 0, metadata !"", i32 0, i32 0, i64 0, i64 0, i64 0, i32 0, null, metadata !782, i32 0, i32 0} ; [ DW_TAG_subroutine_type ]
!782 = metadata !{metadata !764, metadata !688, metadata !208}
!783 = metadata !{i32 786478, i32 0, metadata !672, metadata !"operator=", metadata !"operator=", metadata !"_ZN11ap_int_baseILi33ELb1ELb1EEaSEt", metadata !152, i32 1613, metadata !784, i1 false, i1 false, i32 0, i32 0, null, i32 256, i1 false, null, null, i32 0, metadata !85, i32 1613} ; [ DW_TAG_subprogram ]
!784 = metadata !{i32 786453, i32 0, metadata !"", i32 0, i32 0, i64 0, i64 0, i64 0, i32 0, null, metadata !785, i32 0, i32 0} ; [ DW_TAG_subroutine_type ]
!785 = metadata !{metadata !764, metadata !688, metadata !212}
!786 = metadata !{i32 786478, i32 0, metadata !672, metadata !"operator=", metadata !"operator=", metadata !"_ZN11ap_int_baseILi33ELb1ELb1EEaSEi", metadata !152, i32 1614, metadata !787, i1 false, i1 false, i32 0, i32 0, null, i32 256, i1 false, null, null, i32 0, metadata !85, i32 1614} ; [ DW_TAG_subprogram ]
!787 = metadata !{i32 786453, i32 0, metadata !"", i32 0, i32 0, i64 0, i64 0, i64 0, i32 0, null, metadata !788, i32 0, i32 0} ; [ DW_TAG_subroutine_type ]
!788 = metadata !{metadata !764, metadata !688, metadata !80}
!789 = metadata !{i32 786478, i32 0, metadata !672, metadata !"operator=", metadata !"operator=", metadata !"_ZN11ap_int_baseILi33ELb1ELb1EEaSEj", metadata !152, i32 1615, metadata !790, i1 false, i1 false, i32 0, i32 0, null, i32 256, i1 false, null, null, i32 0, metadata !85, i32 1615} ; [ DW_TAG_subprogram ]
!790 = metadata !{i32 786453, i32 0, metadata !"", i32 0, i32 0, i64 0, i64 0, i64 0, i32 0, null, metadata !791, i32 0, i32 0} ; [ DW_TAG_subroutine_type ]
!791 = metadata !{metadata !764, metadata !688, metadata !78}
!792 = metadata !{i32 786478, i32 0, metadata !672, metadata !"operator=", metadata !"operator=", metadata !"_ZN11ap_int_baseILi33ELb1ELb1EEaSEx", metadata !152, i32 1616, metadata !793, i1 false, i1 false, i32 0, i32 0, null, i32 256, i1 false, null, null, i32 0, metadata !85, i32 1616} ; [ DW_TAG_subprogram ]
!793 = metadata !{i32 786453, i32 0, metadata !"", i32 0, i32 0, i64 0, i64 0, i64 0, i32 0, null, metadata !794, i32 0, i32 0} ; [ DW_TAG_subroutine_type ]
!794 = metadata !{metadata !764, metadata !688, metadata !230}
!795 = metadata !{i32 786478, i32 0, metadata !672, metadata !"operator=", metadata !"operator=", metadata !"_ZN11ap_int_baseILi33ELb1ELb1EEaSEy", metadata !152, i32 1617, metadata !796, i1 false, i1 false, i32 0, i32 0, null, i32 256, i1 false, null, null, i32 0, metadata !85, i32 1617} ; [ DW_TAG_subprogram ]
!796 = metadata !{i32 786453, i32 0, metadata !"", i32 0, i32 0, i64 0, i64 0, i64 0, i32 0, null, metadata !797, i32 0, i32 0} ; [ DW_TAG_subroutine_type ]
!797 = metadata !{metadata !764, metadata !688, metadata !235}
!798 = metadata !{i32 786478, i32 0, metadata !672, metadata !"operator long long", metadata !"operator long long", metadata !"_ZNK11ap_int_baseILi33ELb1ELb1EEcvxEv", metadata !152, i32 1655, metadata !799, i1 false, i1 false, i32 0, i32 0, null, i32 256, i1 false, null, null, i32 0, metadata !85, i32 1655} ; [ DW_TAG_subprogram ]
!799 = metadata !{i32 786453, i32 0, metadata !"", i32 0, i32 0, i64 0, i64 0, i64 0, i32 0, null, metadata !800, i32 0, i32 0} ; [ DW_TAG_subroutine_type ]
!800 = metadata !{metadata !801, metadata !806}
!801 = metadata !{i32 786454, metadata !672, metadata !"RetType", metadata !152, i32 1403, i64 0, i64 0, i64 0, i32 0, metadata !802} ; [ DW_TAG_typedef ]
!802 = metadata !{i32 786454, metadata !803, metadata !"Type", metadata !152, i32 1360, i64 0, i64 0, i64 0, i32 0, metadata !230} ; [ DW_TAG_typedef ]
!803 = metadata !{i32 786434, null, metadata !"retval<5, true>", metadata !152, i32 1359, i64 8, i64 8, i32 0, i32 0, null, metadata !437, i32 0, null, metadata !804} ; [ DW_TAG_class_type ]
!804 = metadata !{metadata !805, metadata !175}
!805 = metadata !{i32 786480, null, metadata !"_AP_N", metadata !80, i64 5, null, i32 0, i32 0} ; [ DW_TAG_template_value_parameter ]
!806 = metadata !{i32 786447, i32 0, metadata !"", i32 0, i32 0, i64 64, i64 64, i64 0, i32 64, metadata !693} ; [ DW_TAG_pointer_type ]
!807 = metadata !{i32 786478, i32 0, metadata !672, metadata !"to_bool", metadata !"to_bool", metadata !"_ZNK11ap_int_baseILi33ELb1ELb1EE7to_boolEv", metadata !152, i32 1661, metadata !808, i1 false, i1 false, i32 0, i32 0, null, i32 256, i1 false, null, null, i32 0, metadata !85, i32 1661} ; [ DW_TAG_subprogram ]
!808 = metadata !{i32 786453, i32 0, metadata !"", i32 0, i32 0, i64 0, i64 0, i64 0, i32 0, null, metadata !809, i32 0, i32 0} ; [ DW_TAG_subroutine_type ]
!809 = metadata !{metadata !113, metadata !806}
!810 = metadata !{i32 786478, i32 0, metadata !672, metadata !"to_uchar", metadata !"to_uchar", metadata !"_ZNK11ap_int_baseILi33ELb1ELb1EE8to_ucharEv", metadata !152, i32 1662, metadata !811, i1 false, i1 false, i32 0, i32 0, null, i32 256, i1 false, null, null, i32 0, metadata !85, i32 1662} ; [ DW_TAG_subprogram ]
!811 = metadata !{i32 786453, i32 0, metadata !"", i32 0, i32 0, i64 0, i64 0, i64 0, i32 0, null, metadata !812, i32 0, i32 0} ; [ DW_TAG_subroutine_type ]
!812 = metadata !{metadata !204, metadata !806}
!813 = metadata !{i32 786478, i32 0, metadata !672, metadata !"to_char", metadata !"to_char", metadata !"_ZNK11ap_int_baseILi33ELb1ELb1EE7to_charEv", metadata !152, i32 1663, metadata !814, i1 false, i1 false, i32 0, i32 0, null, i32 256, i1 false, null, null, i32 0, metadata !85, i32 1663} ; [ DW_TAG_subprogram ]
!814 = metadata !{i32 786453, i32 0, metadata !"", i32 0, i32 0, i64 0, i64 0, i64 0, i32 0, null, metadata !815, i32 0, i32 0} ; [ DW_TAG_subroutine_type ]
!815 = metadata !{metadata !200, metadata !806}
!816 = metadata !{i32 786478, i32 0, metadata !672, metadata !"to_ushort", metadata !"to_ushort", metadata !"_ZNK11ap_int_baseILi33ELb1ELb1EE9to_ushortEv", metadata !152, i32 1664, metadata !817, i1 false, i1 false, i32 0, i32 0, null, i32 256, i1 false, null, null, i32 0, metadata !85, i32 1664} ; [ DW_TAG_subprogram ]
!817 = metadata !{i32 786453, i32 0, metadata !"", i32 0, i32 0, i64 0, i64 0, i64 0, i32 0, null, metadata !818, i32 0, i32 0} ; [ DW_TAG_subroutine_type ]
!818 = metadata !{metadata !212, metadata !806}
!819 = metadata !{i32 786478, i32 0, metadata !672, metadata !"to_short", metadata !"to_short", metadata !"_ZNK11ap_int_baseILi33ELb1ELb1EE8to_shortEv", metadata !152, i32 1665, metadata !820, i1 false, i1 false, i32 0, i32 0, null, i32 256, i1 false, null, null, i32 0, metadata !85, i32 1665} ; [ DW_TAG_subprogram ]
!820 = metadata !{i32 786453, i32 0, metadata !"", i32 0, i32 0, i64 0, i64 0, i64 0, i32 0, null, metadata !821, i32 0, i32 0} ; [ DW_TAG_subroutine_type ]
!821 = metadata !{metadata !208, metadata !806}
!822 = metadata !{i32 786478, i32 0, metadata !672, metadata !"to_int", metadata !"to_int", metadata !"_ZNK11ap_int_baseILi33ELb1ELb1EE6to_intEv", metadata !152, i32 1666, metadata !823, i1 false, i1 false, i32 0, i32 0, null, i32 256, i1 false, null, null, i32 0, metadata !85, i32 1666} ; [ DW_TAG_subprogram ]
!823 = metadata !{i32 786453, i32 0, metadata !"", i32 0, i32 0, i64 0, i64 0, i64 0, i32 0, null, metadata !824, i32 0, i32 0} ; [ DW_TAG_subroutine_type ]
!824 = metadata !{metadata !80, metadata !806}
!825 = metadata !{i32 786478, i32 0, metadata !672, metadata !"to_uint", metadata !"to_uint", metadata !"_ZNK11ap_int_baseILi33ELb1ELb1EE7to_uintEv", metadata !152, i32 1667, metadata !826, i1 false, i1 false, i32 0, i32 0, null, i32 256, i1 false, null, null, i32 0, metadata !85, i32 1667} ; [ DW_TAG_subprogram ]
!826 = metadata !{i32 786453, i32 0, metadata !"", i32 0, i32 0, i64 0, i64 0, i64 0, i32 0, null, metadata !827, i32 0, i32 0} ; [ DW_TAG_subroutine_type ]
!827 = metadata !{metadata !78, metadata !806}
!828 = metadata !{i32 786478, i32 0, metadata !672, metadata !"to_long", metadata !"to_long", metadata !"_ZNK11ap_int_baseILi33ELb1ELb1EE7to_longEv", metadata !152, i32 1668, metadata !829, i1 false, i1 false, i32 0, i32 0, null, i32 256, i1 false, null, null, i32 0, metadata !85, i32 1668} ; [ DW_TAG_subprogram ]
!829 = metadata !{i32 786453, i32 0, metadata !"", i32 0, i32 0, i64 0, i64 0, i64 0, i32 0, null, metadata !830, i32 0, i32 0} ; [ DW_TAG_subroutine_type ]
!830 = metadata !{metadata !222, metadata !806}
!831 = metadata !{i32 786478, i32 0, metadata !672, metadata !"to_ulong", metadata !"to_ulong", metadata !"_ZNK11ap_int_baseILi33ELb1ELb1EE8to_ulongEv", metadata !152, i32 1669, metadata !832, i1 false, i1 false, i32 0, i32 0, null, i32 256, i1 false, null, null, i32 0, metadata !85, i32 1669} ; [ DW_TAG_subprogram ]
!832 = metadata !{i32 786453, i32 0, metadata !"", i32 0, i32 0, i64 0, i64 0, i64 0, i32 0, null, metadata !833, i32 0, i32 0} ; [ DW_TAG_subroutine_type ]
!833 = metadata !{metadata !226, metadata !806}
!834 = metadata !{i32 786478, i32 0, metadata !672, metadata !"to_int64", metadata !"to_int64", metadata !"_ZNK11ap_int_baseILi33ELb1ELb1EE8to_int64Ev", metadata !152, i32 1670, metadata !835, i1 false, i1 false, i32 0, i32 0, null, i32 256, i1 false, null, null, i32 0, metadata !85, i32 1670} ; [ DW_TAG_subprogram ]
!835 = metadata !{i32 786453, i32 0, metadata !"", i32 0, i32 0, i64 0, i64 0, i64 0, i32 0, null, metadata !836, i32 0, i32 0} ; [ DW_TAG_subroutine_type ]
!836 = metadata !{metadata !230, metadata !806}
!837 = metadata !{i32 786478, i32 0, metadata !672, metadata !"to_uint64", metadata !"to_uint64", metadata !"_ZNK11ap_int_baseILi33ELb1ELb1EE9to_uint64Ev", metadata !152, i32 1671, metadata !838, i1 false, i1 false, i32 0, i32 0, null, i32 256, i1 false, null, null, i32 0, metadata !85, i32 1671} ; [ DW_TAG_subprogram ]
!838 = metadata !{i32 786453, i32 0, metadata !"", i32 0, i32 0, i64 0, i64 0, i64 0, i32 0, null, metadata !839, i32 0, i32 0} ; [ DW_TAG_subroutine_type ]
!839 = metadata !{metadata !235, metadata !806}
!840 = metadata !{i32 786478, i32 0, metadata !672, metadata !"to_double", metadata !"to_double", metadata !"_ZNK11ap_int_baseILi33ELb1ELb1EE9to_doubleEv", metadata !152, i32 1672, metadata !841, i1 false, i1 false, i32 0, i32 0, null, i32 256, i1 false, null, null, i32 0, metadata !85, i32 1672} ; [ DW_TAG_subprogram ]
!841 = metadata !{i32 786453, i32 0, metadata !"", i32 0, i32 0, i64 0, i64 0, i64 0, i32 0, null, metadata !842, i32 0, i32 0} ; [ DW_TAG_subroutine_type ]
!842 = metadata !{metadata !249, metadata !806}
!843 = metadata !{i32 786478, i32 0, metadata !672, metadata !"length", metadata !"length", metadata !"_ZNK11ap_int_baseILi33ELb1ELb1EE6lengthEv", metadata !152, i32 1686, metadata !823, i1 false, i1 false, i32 0, i32 0, null, i32 256, i1 false, null, null, i32 0, metadata !85, i32 1686} ; [ DW_TAG_subprogram ]
!844 = metadata !{i32 786478, i32 0, metadata !672, metadata !"length", metadata !"length", metadata !"_ZNVK11ap_int_baseILi33ELb1ELb1EE6lengthEv", metadata !152, i32 1687, metadata !845, i1 false, i1 false, i32 0, i32 0, null, i32 256, i1 false, null, null, i32 0, metadata !85, i32 1687} ; [ DW_TAG_subprogram ]
!845 = metadata !{i32 786453, i32 0, metadata !"", i32 0, i32 0, i64 0, i64 0, i64 0, i32 0, null, metadata !846, i32 0, i32 0} ; [ DW_TAG_subroutine_type ]
!846 = metadata !{metadata !80, metadata !847}
!847 = metadata !{i32 786447, i32 0, metadata !"", i32 0, i32 0, i64 64, i64 64, i64 0, i32 64, metadata !700} ; [ DW_TAG_pointer_type ]
!848 = metadata !{i32 786478, i32 0, metadata !672, metadata !"reverse", metadata !"reverse", metadata !"_ZN11ap_int_baseILi33ELb1ELb1EE7reverseEv", metadata !152, i32 1692, metadata !849, i1 false, i1 false, i32 0, i32 0, null, i32 256, i1 false, null, null, i32 0, metadata !85, i32 1692} ; [ DW_TAG_subprogram ]
!849 = metadata !{i32 786453, i32 0, metadata !"", i32 0, i32 0, i64 0, i64 0, i64 0, i32 0, null, metadata !850, i32 0, i32 0} ; [ DW_TAG_subroutine_type ]
!850 = metadata !{metadata !764, metadata !688}
!851 = metadata !{i32 786478, i32 0, metadata !672, metadata !"iszero", metadata !"iszero", metadata !"_ZNK11ap_int_baseILi33ELb1ELb1EE6iszeroEv", metadata !152, i32 1698, metadata !808, i1 false, i1 false, i32 0, i32 0, null, i32 256, i1 false, null, null, i32 0, metadata !85, i32 1698} ; [ DW_TAG_subprogram ]
!852 = metadata !{i32 786478, i32 0, metadata !672, metadata !"is_zero", metadata !"is_zero", metadata !"_ZNK11ap_int_baseILi33ELb1ELb1EE7is_zeroEv", metadata !152, i32 1703, metadata !808, i1 false, i1 false, i32 0, i32 0, null, i32 256, i1 false, null, null, i32 0, metadata !85, i32 1703} ; [ DW_TAG_subprogram ]
!853 = metadata !{i32 786478, i32 0, metadata !672, metadata !"sign", metadata !"sign", metadata !"_ZNK11ap_int_baseILi33ELb1ELb1EE4signEv", metadata !152, i32 1708, metadata !808, i1 false, i1 false, i32 0, i32 0, null, i32 256, i1 false, null, null, i32 0, metadata !85, i32 1708} ; [ DW_TAG_subprogram ]
!854 = metadata !{i32 786478, i32 0, metadata !672, metadata !"clear", metadata !"clear", metadata !"_ZN11ap_int_baseILi33ELb1ELb1EE5clearEi", metadata !152, i32 1716, metadata !718, i1 false, i1 false, i32 0, i32 0, null, i32 256, i1 false, null, null, i32 0, metadata !85, i32 1716} ; [ DW_TAG_subprogram ]
!855 = metadata !{i32 786478, i32 0, metadata !672, metadata !"invert", metadata !"invert", metadata !"_ZN11ap_int_baseILi33ELb1ELb1EE6invertEi", metadata !152, i32 1722, metadata !718, i1 false, i1 false, i32 0, i32 0, null, i32 256, i1 false, null, null, i32 0, metadata !85, i32 1722} ; [ DW_TAG_subprogram ]
!856 = metadata !{i32 786478, i32 0, metadata !672, metadata !"test", metadata !"test", metadata !"_ZNK11ap_int_baseILi33ELb1ELb1EE4testEi", metadata !152, i32 1730, metadata !857, i1 false, i1 false, i32 0, i32 0, null, i32 256, i1 false, null, null, i32 0, metadata !85, i32 1730} ; [ DW_TAG_subprogram ]
!857 = metadata !{i32 786453, i32 0, metadata !"", i32 0, i32 0, i64 0, i64 0, i64 0, i32 0, null, metadata !858, i32 0, i32 0} ; [ DW_TAG_subroutine_type ]
!858 = metadata !{metadata !113, metadata !806, metadata !80}
!859 = metadata !{i32 786478, i32 0, metadata !672, metadata !"set", metadata !"set", metadata !"_ZN11ap_int_baseILi33ELb1ELb1EE3setEi", metadata !152, i32 1736, metadata !718, i1 false, i1 false, i32 0, i32 0, null, i32 256, i1 false, null, null, i32 0, metadata !85, i32 1736} ; [ DW_TAG_subprogram ]
!860 = metadata !{i32 786478, i32 0, metadata !672, metadata !"set", metadata !"set", metadata !"_ZN11ap_int_baseILi33ELb1ELb1EE3setEib", metadata !152, i32 1742, metadata !861, i1 false, i1 false, i32 0, i32 0, null, i32 256, i1 false, null, null, i32 0, metadata !85, i32 1742} ; [ DW_TAG_subprogram ]
!861 = metadata !{i32 786453, i32 0, metadata !"", i32 0, i32 0, i64 0, i64 0, i64 0, i32 0, null, metadata !862, i32 0, i32 0} ; [ DW_TAG_subroutine_type ]
!862 = metadata !{null, metadata !688, metadata !80, metadata !113}
!863 = metadata !{i32 786478, i32 0, metadata !672, metadata !"lrotate", metadata !"lrotate", metadata !"_ZN11ap_int_baseILi33ELb1ELb1EE7lrotateEi", metadata !152, i32 1749, metadata !718, i1 false, i1 false, i32 0, i32 0, null, i32 256, i1 false, null, null, i32 0, metadata !85, i32 1749} ; [ DW_TAG_subprogram ]
!864 = metadata !{i32 786478, i32 0, metadata !672, metadata !"rrotate", metadata !"rrotate", metadata !"_ZN11ap_int_baseILi33ELb1ELb1EE7rrotateEi", metadata !152, i32 1758, metadata !718, i1 false, i1 false, i32 0, i32 0, null, i32 256, i1 false, null, null, i32 0, metadata !85, i32 1758} ; [ DW_TAG_subprogram ]
!865 = metadata !{i32 786478, i32 0, metadata !672, metadata !"set_bit", metadata !"set_bit", metadata !"_ZN11ap_int_baseILi33ELb1ELb1EE7set_bitEib", metadata !152, i32 1766, metadata !861, i1 false, i1 false, i32 0, i32 0, null, i32 256, i1 false, null, null, i32 0, metadata !85, i32 1766} ; [ DW_TAG_subprogram ]
!866 = metadata !{i32 786478, i32 0, metadata !672, metadata !"get_bit", metadata !"get_bit", metadata !"_ZNK11ap_int_baseILi33ELb1ELb1EE7get_bitEi", metadata !152, i32 1771, metadata !857, i1 false, i1 false, i32 0, i32 0, null, i32 256, i1 false, null, null, i32 0, metadata !85, i32 1771} ; [ DW_TAG_subprogram ]
!867 = metadata !{i32 786478, i32 0, metadata !672, metadata !"b_not", metadata !"b_not", metadata !"_ZN11ap_int_baseILi33ELb1ELb1EE5b_notEv", metadata !152, i32 1776, metadata !686, i1 false, i1 false, i32 0, i32 0, null, i32 256, i1 false, null, null, i32 0, metadata !85, i32 1776} ; [ DW_TAG_subprogram ]
!868 = metadata !{i32 786478, i32 0, metadata !672, metadata !"countLeadingZeros", metadata !"countLeadingZeros", metadata !"_ZN11ap_int_baseILi33ELb1ELb1EE17countLeadingZerosEv", metadata !152, i32 1783, metadata !869, i1 false, i1 false, i32 0, i32 0, null, i32 256, i1 false, null, null, i32 0, metadata !85, i32 1783} ; [ DW_TAG_subprogram ]
!869 = metadata !{i32 786453, i32 0, metadata !"", i32 0, i32 0, i64 0, i64 0, i64 0, i32 0, null, metadata !870, i32 0, i32 0} ; [ DW_TAG_subroutine_type ]
!870 = metadata !{metadata !80, metadata !688}
!871 = metadata !{i32 786478, i32 0, metadata !672, metadata !"operator++", metadata !"operator++", metadata !"_ZN11ap_int_baseILi33ELb1ELb1EEppEv", metadata !152, i32 1840, metadata !849, i1 false, i1 false, i32 0, i32 0, null, i32 256, i1 false, null, null, i32 0, metadata !85, i32 1840} ; [ DW_TAG_subprogram ]
!872 = metadata !{i32 786478, i32 0, metadata !672, metadata !"operator--", metadata !"operator--", metadata !"_ZN11ap_int_baseILi33ELb1ELb1EEmmEv", metadata !152, i32 1844, metadata !849, i1 false, i1 false, i32 0, i32 0, null, i32 256, i1 false, null, null, i32 0, metadata !85, i32 1844} ; [ DW_TAG_subprogram ]
!873 = metadata !{i32 786478, i32 0, metadata !672, metadata !"operator++", metadata !"operator++", metadata !"_ZN11ap_int_baseILi33ELb1ELb1EEppEi", metadata !152, i32 1852, metadata !874, i1 false, i1 false, i32 0, i32 0, null, i32 256, i1 false, null, null, i32 0, metadata !85, i32 1852} ; [ DW_TAG_subprogram ]
!874 = metadata !{i32 786453, i32 0, metadata !"", i32 0, i32 0, i64 0, i64 0, i64 0, i32 0, null, metadata !875, i32 0, i32 0} ; [ DW_TAG_subroutine_type ]
!875 = metadata !{metadata !693, metadata !688, metadata !80}
!876 = metadata !{i32 786478, i32 0, metadata !672, metadata !"operator--", metadata !"operator--", metadata !"_ZN11ap_int_baseILi33ELb1ELb1EEmmEi", metadata !152, i32 1857, metadata !874, i1 false, i1 false, i32 0, i32 0, null, i32 256, i1 false, null, null, i32 0, metadata !85, i32 1857} ; [ DW_TAG_subprogram ]
!877 = metadata !{i32 786478, i32 0, metadata !672, metadata !"operator+", metadata !"operator+", metadata !"_ZNK11ap_int_baseILi33ELb1ELb1EEpsEv", metadata !152, i32 1866, metadata !878, i1 false, i1 false, i32 0, i32 0, null, i32 256, i1 false, null, null, i32 0, metadata !85, i32 1866} ; [ DW_TAG_subprogram ]
!878 = metadata !{i32 786453, i32 0, metadata !"", i32 0, i32 0, i64 0, i64 0, i64 0, i32 0, null, metadata !879, i32 0, i32 0} ; [ DW_TAG_subroutine_type ]
!879 = metadata !{metadata !672, metadata !806}
!880 = metadata !{i32 786478, i32 0, metadata !672, metadata !"operator!", metadata !"operator!", metadata !"_ZNK11ap_int_baseILi33ELb1ELb1EEntEv", metadata !152, i32 1872, metadata !808, i1 false, i1 false, i32 0, i32 0, null, i32 256, i1 false, null, null, i32 0, metadata !85, i32 1872} ; [ DW_TAG_subprogram ]
!881 = metadata !{i32 786478, i32 0, metadata !672, metadata !"operator-", metadata !"operator-", metadata !"_ZNK11ap_int_baseILi33ELb1ELb1EEngEv", metadata !152, i32 1877, metadata !882, i1 false, i1 false, i32 0, i32 0, null, i32 256, i1 false, null, null, i32 0, metadata !85, i32 1877} ; [ DW_TAG_subprogram ]
!882 = metadata !{i32 786453, i32 0, metadata !"", i32 0, i32 0, i64 0, i64 0, i64 0, i32 0, null, metadata !883, i32 0, i32 0} ; [ DW_TAG_subroutine_type ]
!883 = metadata !{metadata !884, metadata !806}
!884 = metadata !{i32 786434, null, metadata !"ap_int_base<34, true, true>", metadata !152, i32 651, i32 0, i32 0, i32 0, i32 4, null, null, i32 0} ; [ DW_TAG_class_type ]
!885 = metadata !{i32 786478, i32 0, metadata !672, metadata !"range", metadata !"range", metadata !"_ZN11ap_int_baseILi33ELb1ELb1EE5rangeEii", metadata !152, i32 2007, metadata !886, i1 false, i1 false, i32 0, i32 0, null, i32 256, i1 false, null, null, i32 0, metadata !85, i32 2007} ; [ DW_TAG_subprogram ]
!886 = metadata !{i32 786453, i32 0, metadata !"", i32 0, i32 0, i64 0, i64 0, i64 0, i32 0, null, metadata !887, i32 0, i32 0} ; [ DW_TAG_subroutine_type ]
!887 = metadata !{metadata !888, metadata !688, metadata !80, metadata !80}
!888 = metadata !{i32 786434, null, metadata !"ap_range_ref<33, true>", metadata !152, i32 924, i32 0, i32 0, i32 0, i32 4, null, null, i32 0} ; [ DW_TAG_class_type ]
!889 = metadata !{i32 786478, i32 0, metadata !672, metadata !"operator()", metadata !"operator()", metadata !"_ZN11ap_int_baseILi33ELb1ELb1EEclEii", metadata !152, i32 2013, metadata !886, i1 false, i1 false, i32 0, i32 0, null, i32 256, i1 false, null, null, i32 0, metadata !85, i32 2013} ; [ DW_TAG_subprogram ]
!890 = metadata !{i32 786478, i32 0, metadata !672, metadata !"range", metadata !"range", metadata !"_ZNK11ap_int_baseILi33ELb1ELb1EE5rangeEii", metadata !152, i32 2019, metadata !891, i1 false, i1 false, i32 0, i32 0, null, i32 256, i1 false, null, null, i32 0, metadata !85, i32 2019} ; [ DW_TAG_subprogram ]
!891 = metadata !{i32 786453, i32 0, metadata !"", i32 0, i32 0, i64 0, i64 0, i64 0, i32 0, null, metadata !892, i32 0, i32 0} ; [ DW_TAG_subroutine_type ]
!892 = metadata !{metadata !888, metadata !806, metadata !80, metadata !80}
!893 = metadata !{i32 786478, i32 0, metadata !672, metadata !"operator()", metadata !"operator()", metadata !"_ZNK11ap_int_baseILi33ELb1ELb1EEclEii", metadata !152, i32 2025, metadata !891, i1 false, i1 false, i32 0, i32 0, null, i32 256, i1 false, null, null, i32 0, metadata !85, i32 2025} ; [ DW_TAG_subprogram ]
!894 = metadata !{i32 786478, i32 0, metadata !672, metadata !"operator[]", metadata !"operator[]", metadata !"_ZN11ap_int_baseILi33ELb1ELb1EEixEi", metadata !152, i32 2044, metadata !895, i1 false, i1 false, i32 0, i32 0, null, i32 256, i1 false, null, null, i32 0, metadata !85, i32 2044} ; [ DW_TAG_subprogram ]
!895 = metadata !{i32 786453, i32 0, metadata !"", i32 0, i32 0, i64 0, i64 0, i64 0, i32 0, null, metadata !896, i32 0, i32 0} ; [ DW_TAG_subroutine_type ]
!896 = metadata !{metadata !897, metadata !688, metadata !80}
!897 = metadata !{i32 786434, null, metadata !"ap_bit_ref<33, true>", metadata !152, i32 1194, i64 128, i64 64, i32 0, i32 0, null, metadata !898, i32 0, null, metadata !931} ; [ DW_TAG_class_type ]
!898 = metadata !{metadata !899, metadata !900, metadata !901, metadata !907, metadata !911, metadata !915, metadata !916, metadata !920, metadata !923, metadata !924, metadata !927, metadata !928}
!899 = metadata !{i32 786445, metadata !897, metadata !"d_bv", metadata !152, i32 1195, i64 64, i64 64, i64 0, i32 0, metadata !764} ; [ DW_TAG_member ]
!900 = metadata !{i32 786445, metadata !897, metadata !"d_index", metadata !152, i32 1196, i64 32, i64 32, i64 64, i32 0, metadata !80} ; [ DW_TAG_member ]
!901 = metadata !{i32 786478, i32 0, metadata !897, metadata !"ap_bit_ref", metadata !"ap_bit_ref", metadata !"", metadata !152, i32 1199, metadata !902, i1 false, i1 false, i32 0, i32 0, null, i32 256, i1 false, null, null, i32 0, metadata !85, i32 1199} ; [ DW_TAG_subprogram ]
!902 = metadata !{i32 786453, i32 0, metadata !"", i32 0, i32 0, i64 0, i64 0, i64 0, i32 0, null, metadata !903, i32 0, i32 0} ; [ DW_TAG_subroutine_type ]
!903 = metadata !{null, metadata !904, metadata !905}
!904 = metadata !{i32 786447, i32 0, metadata !"", i32 0, i32 0, i64 64, i64 64, i64 0, i32 64, metadata !897} ; [ DW_TAG_pointer_type ]
!905 = metadata !{i32 786448, null, null, null, i32 0, i64 0, i64 0, i64 0, i32 0, metadata !906} ; [ DW_TAG_reference_type ]
!906 = metadata !{i32 786470, null, metadata !"", null, i32 0, i64 0, i64 0, i64 0, i32 0, metadata !897} ; [ DW_TAG_const_type ]
!907 = metadata !{i32 786478, i32 0, metadata !897, metadata !"ap_bit_ref", metadata !"ap_bit_ref", metadata !"", metadata !152, i32 1202, metadata !908, i1 false, i1 false, i32 0, i32 0, null, i32 256, i1 false, null, null, i32 0, metadata !85, i32 1202} ; [ DW_TAG_subprogram ]
!908 = metadata !{i32 786453, i32 0, metadata !"", i32 0, i32 0, i64 0, i64 0, i64 0, i32 0, null, metadata !909, i32 0, i32 0} ; [ DW_TAG_subroutine_type ]
!909 = metadata !{null, metadata !904, metadata !910, metadata !80}
!910 = metadata !{i32 786447, null, metadata !"", null, i32 0, i64 64, i64 64, i64 0, i32 0, metadata !672} ; [ DW_TAG_pointer_type ]
!911 = metadata !{i32 786478, i32 0, metadata !897, metadata !"operator _Bool", metadata !"operator _Bool", metadata !"_ZNK10ap_bit_refILi33ELb1EEcvbEv", metadata !152, i32 1204, metadata !912, i1 false, i1 false, i32 0, i32 0, null, i32 256, i1 false, null, null, i32 0, metadata !85, i32 1204} ; [ DW_TAG_subprogram ]
!912 = metadata !{i32 786453, i32 0, metadata !"", i32 0, i32 0, i64 0, i64 0, i64 0, i32 0, null, metadata !913, i32 0, i32 0} ; [ DW_TAG_subroutine_type ]
!913 = metadata !{metadata !113, metadata !914}
!914 = metadata !{i32 786447, i32 0, metadata !"", i32 0, i32 0, i64 64, i64 64, i64 0, i32 64, metadata !906} ; [ DW_TAG_pointer_type ]
!915 = metadata !{i32 786478, i32 0, metadata !897, metadata !"to_bool", metadata !"to_bool", metadata !"_ZNK10ap_bit_refILi33ELb1EE7to_boolEv", metadata !152, i32 1205, metadata !912, i1 false, i1 false, i32 0, i32 0, null, i32 256, i1 false, null, null, i32 0, metadata !85, i32 1205} ; [ DW_TAG_subprogram ]
!916 = metadata !{i32 786478, i32 0, metadata !897, metadata !"operator=", metadata !"operator=", metadata !"_ZN10ap_bit_refILi33ELb1EEaSEy", metadata !152, i32 1207, metadata !917, i1 false, i1 false, i32 0, i32 0, null, i32 256, i1 false, null, null, i32 0, metadata !85, i32 1207} ; [ DW_TAG_subprogram ]
!917 = metadata !{i32 786453, i32 0, metadata !"", i32 0, i32 0, i64 0, i64 0, i64 0, i32 0, null, metadata !918, i32 0, i32 0} ; [ DW_TAG_subroutine_type ]
!918 = metadata !{metadata !919, metadata !904, metadata !236}
!919 = metadata !{i32 786448, null, null, null, i32 0, i64 0, i64 0, i64 0, i32 0, metadata !897} ; [ DW_TAG_reference_type ]
!920 = metadata !{i32 786478, i32 0, metadata !897, metadata !"operator=", metadata !"operator=", metadata !"_ZN10ap_bit_refILi33ELb1EEaSERKS0_", metadata !152, i32 1227, metadata !921, i1 false, i1 false, i32 0, i32 0, null, i32 256, i1 false, null, null, i32 0, metadata !85, i32 1227} ; [ DW_TAG_subprogram ]
!921 = metadata !{i32 786453, i32 0, metadata !"", i32 0, i32 0, i64 0, i64 0, i64 0, i32 0, null, metadata !922, i32 0, i32 0} ; [ DW_TAG_subroutine_type ]
!922 = metadata !{metadata !919, metadata !904, metadata !905}
!923 = metadata !{i32 786478, i32 0, metadata !897, metadata !"get", metadata !"get", metadata !"_ZNK10ap_bit_refILi33ELb1EE3getEv", metadata !152, i32 1335, metadata !912, i1 false, i1 false, i32 0, i32 0, null, i32 256, i1 false, null, null, i32 0, metadata !85, i32 1335} ; [ DW_TAG_subprogram ]
!924 = metadata !{i32 786478, i32 0, metadata !897, metadata !"get", metadata !"get", metadata !"_ZN10ap_bit_refILi33ELb1EE3getEv", metadata !152, i32 1339, metadata !925, i1 false, i1 false, i32 0, i32 0, null, i32 256, i1 false, null, null, i32 0, metadata !85, i32 1339} ; [ DW_TAG_subprogram ]
!925 = metadata !{i32 786453, i32 0, metadata !"", i32 0, i32 0, i64 0, i64 0, i64 0, i32 0, null, metadata !926, i32 0, i32 0} ; [ DW_TAG_subroutine_type ]
!926 = metadata !{metadata !113, metadata !904}
!927 = metadata !{i32 786478, i32 0, metadata !897, metadata !"operator~", metadata !"operator~", metadata !"_ZNK10ap_bit_refILi33ELb1EEcoEv", metadata !152, i32 1348, metadata !912, i1 false, i1 false, i32 0, i32 0, null, i32 256, i1 false, null, null, i32 0, metadata !85, i32 1348} ; [ DW_TAG_subprogram ]
!928 = metadata !{i32 786478, i32 0, metadata !897, metadata !"length", metadata !"length", metadata !"_ZNK10ap_bit_refILi33ELb1EE6lengthEv", metadata !152, i32 1353, metadata !929, i1 false, i1 false, i32 0, i32 0, null, i32 256, i1 false, null, null, i32 0, metadata !85, i32 1353} ; [ DW_TAG_subprogram ]
!929 = metadata !{i32 786453, i32 0, metadata !"", i32 0, i32 0, i64 0, i64 0, i64 0, i32 0, null, metadata !930, i32 0, i32 0} ; [ DW_TAG_subroutine_type ]
!930 = metadata !{metadata !80, metadata !914}
!931 = metadata !{metadata !932, metadata !175}
!932 = metadata !{i32 786480, null, metadata !"_AP_W", metadata !80, i64 33, null, i32 0, i32 0} ; [ DW_TAG_template_value_parameter ]
!933 = metadata !{i32 786478, i32 0, metadata !672, metadata !"operator[]", metadata !"operator[]", metadata !"_ZNK11ap_int_baseILi33ELb1ELb1EEixEi", metadata !152, i32 2058, metadata !857, i1 false, i1 false, i32 0, i32 0, null, i32 256, i1 false, null, null, i32 0, metadata !85, i32 2058} ; [ DW_TAG_subprogram ]
!934 = metadata !{i32 786478, i32 0, metadata !672, metadata !"bit", metadata !"bit", metadata !"_ZN11ap_int_baseILi33ELb1ELb1EE3bitEi", metadata !152, i32 2072, metadata !895, i1 false, i1 false, i32 0, i32 0, null, i32 256, i1 false, null, null, i32 0, metadata !85, i32 2072} ; [ DW_TAG_subprogram ]
!935 = metadata !{i32 786478, i32 0, metadata !672, metadata !"bit", metadata !"bit", metadata !"_ZNK11ap_int_baseILi33ELb1ELb1EE3bitEi", metadata !152, i32 2086, metadata !857, i1 false, i1 false, i32 0, i32 0, null, i32 256, i1 false, null, null, i32 0, metadata !85, i32 2086} ; [ DW_TAG_subprogram ]
!936 = metadata !{i32 786478, i32 0, metadata !672, metadata !"and_reduce", metadata !"and_reduce", metadata !"_ZN11ap_int_baseILi33ELb1ELb1EE10and_reduceEv", metadata !152, i32 2266, metadata !937, i1 false, i1 false, i32 0, i32 0, null, i32 256, i1 false, null, null, i32 0, metadata !85, i32 2266} ; [ DW_TAG_subprogram ]
!937 = metadata !{i32 786453, i32 0, metadata !"", i32 0, i32 0, i64 0, i64 0, i64 0, i32 0, null, metadata !938, i32 0, i32 0} ; [ DW_TAG_subroutine_type ]
!938 = metadata !{metadata !113, metadata !688}
!939 = metadata !{i32 786478, i32 0, metadata !672, metadata !"nand_reduce", metadata !"nand_reduce", metadata !"_ZN11ap_int_baseILi33ELb1ELb1EE11nand_reduceEv", metadata !152, i32 2269, metadata !937, i1 false, i1 false, i32 0, i32 0, null, i32 256, i1 false, null, null, i32 0, metadata !85, i32 2269} ; [ DW_TAG_subprogram ]
!940 = metadata !{i32 786478, i32 0, metadata !672, metadata !"or_reduce", metadata !"or_reduce", metadata !"_ZN11ap_int_baseILi33ELb1ELb1EE9or_reduceEv", metadata !152, i32 2272, metadata !937, i1 false, i1 false, i32 0, i32 0, null, i32 256, i1 false, null, null, i32 0, metadata !85, i32 2272} ; [ DW_TAG_subprogram ]
!941 = metadata !{i32 786478, i32 0, metadata !672, metadata !"nor_reduce", metadata !"nor_reduce", metadata !"_ZN11ap_int_baseILi33ELb1ELb1EE10nor_reduceEv", metadata !152, i32 2275, metadata !937, i1 false, i1 false, i32 0, i32 0, null, i32 256, i1 false, null, null, i32 0, metadata !85, i32 2275} ; [ DW_TAG_subprogram ]
!942 = metadata !{i32 786478, i32 0, metadata !672, metadata !"xor_reduce", metadata !"xor_reduce", metadata !"_ZN11ap_int_baseILi33ELb1ELb1EE10xor_reduceEv", metadata !152, i32 2278, metadata !937, i1 false, i1 false, i32 0, i32 0, null, i32 256, i1 false, null, null, i32 0, metadata !85, i32 2278} ; [ DW_TAG_subprogram ]
!943 = metadata !{i32 786478, i32 0, metadata !672, metadata !"xnor_reduce", metadata !"xnor_reduce", metadata !"_ZN11ap_int_baseILi33ELb1ELb1EE11xnor_reduceEv", metadata !152, i32 2281, metadata !937, i1 false, i1 false, i32 0, i32 0, null, i32 256, i1 false, null, null, i32 0, metadata !85, i32 2281} ; [ DW_TAG_subprogram ]
!944 = metadata !{i32 786478, i32 0, metadata !672, metadata !"and_reduce", metadata !"and_reduce", metadata !"_ZNK11ap_int_baseILi33ELb1ELb1EE10and_reduceEv", metadata !152, i32 2285, metadata !808, i1 false, i1 false, i32 0, i32 0, null, i32 256, i1 false, null, null, i32 0, metadata !85, i32 2285} ; [ DW_TAG_subprogram ]
!945 = metadata !{i32 786478, i32 0, metadata !672, metadata !"nand_reduce", metadata !"nand_reduce", metadata !"_ZNK11ap_int_baseILi33ELb1ELb1EE11nand_reduceEv", metadata !152, i32 2288, metadata !808, i1 false, i1 false, i32 0, i32 0, null, i32 256, i1 false, null, null, i32 0, metadata !85, i32 2288} ; [ DW_TAG_subprogram ]
!946 = metadata !{i32 786478, i32 0, metadata !672, metadata !"or_reduce", metadata !"or_reduce", metadata !"_ZNK11ap_int_baseILi33ELb1ELb1EE9or_reduceEv", metadata !152, i32 2291, metadata !808, i1 false, i1 false, i32 0, i32 0, null, i32 256, i1 false, null, null, i32 0, metadata !85, i32 2291} ; [ DW_TAG_subprogram ]
!947 = metadata !{i32 786478, i32 0, metadata !672, metadata !"nor_reduce", metadata !"nor_reduce", metadata !"_ZNK11ap_int_baseILi33ELb1ELb1EE10nor_reduceEv", metadata !152, i32 2294, metadata !808, i1 false, i1 false, i32 0, i32 0, null, i32 256, i1 false, null, null, i32 0, metadata !85, i32 2294} ; [ DW_TAG_subprogram ]
!948 = metadata !{i32 786478, i32 0, metadata !672, metadata !"xor_reduce", metadata !"xor_reduce", metadata !"_ZNK11ap_int_baseILi33ELb1ELb1EE10xor_reduceEv", metadata !152, i32 2297, metadata !808, i1 false, i1 false, i32 0, i32 0, null, i32 256, i1 false, null, null, i32 0, metadata !85, i32 2297} ; [ DW_TAG_subprogram ]
!949 = metadata !{i32 786478, i32 0, metadata !672, metadata !"xnor_reduce", metadata !"xnor_reduce", metadata !"_ZNK11ap_int_baseILi33ELb1ELb1EE11xnor_reduceEv", metadata !152, i32 2300, metadata !808, i1 false, i1 false, i32 0, i32 0, null, i32 256, i1 false, null, null, i32 0, metadata !85, i32 2300} ; [ DW_TAG_subprogram ]
!950 = metadata !{i32 786478, i32 0, metadata !672, metadata !"to_string", metadata !"to_string", metadata !"_ZNK11ap_int_baseILi33ELb1ELb1EE9to_stringEPci8BaseModeb", metadata !152, i32 2307, metadata !951, i1 false, i1 false, i32 0, i32 0, null, i32 256, i1 false, null, null, i32 0, metadata !85, i32 2307} ; [ DW_TAG_subprogram ]
!951 = metadata !{i32 786453, i32 0, metadata !"", i32 0, i32 0, i64 0, i64 0, i64 0, i32 0, null, metadata !952, i32 0, i32 0} ; [ DW_TAG_subroutine_type ]
!952 = metadata !{null, metadata !806, metadata !417, metadata !80, metadata !418, metadata !113}
!953 = metadata !{i32 786478, i32 0, metadata !672, metadata !"to_string", metadata !"to_string", metadata !"_ZNK11ap_int_baseILi33ELb1ELb1EE9to_stringE8BaseModeb", metadata !152, i32 2334, metadata !954, i1 false, i1 false, i32 0, i32 0, null, i32 256, i1 false, null, null, i32 0, metadata !85, i32 2334} ; [ DW_TAG_subprogram ]
!954 = metadata !{i32 786453, i32 0, metadata !"", i32 0, i32 0, i64 0, i64 0, i64 0, i32 0, null, metadata !955, i32 0, i32 0} ; [ DW_TAG_subroutine_type ]
!955 = metadata !{metadata !417, metadata !806, metadata !418, metadata !113}
!956 = metadata !{i32 786478, i32 0, metadata !672, metadata !"to_string", metadata !"to_string", metadata !"_ZNK11ap_int_baseILi33ELb1ELb1EE9to_stringEab", metadata !152, i32 2338, metadata !957, i1 false, i1 false, i32 0, i32 0, null, i32 256, i1 false, null, null, i32 0, metadata !85, i32 2338} ; [ DW_TAG_subprogram ]
!957 = metadata !{i32 786453, i32 0, metadata !"", i32 0, i32 0, i64 0, i64 0, i64 0, i32 0, null, metadata !958, i32 0, i32 0} ; [ DW_TAG_subroutine_type ]
!958 = metadata !{metadata !417, metadata !806, metadata !200, metadata !113}
!959 = metadata !{metadata !932, metadata !175, metadata !434}
!960 = metadata !{i32 786478, i32 0, metadata !463, metadata !"range", metadata !"range", metadata !"_ZN11ap_int_baseILi32ELb1ELb1EE5rangeEii", metadata !152, i32 2007, metadata !961, i1 false, i1 false, i32 0, i32 0, null, i32 256, i1 false, null, null, i32 0, metadata !85, i32 2007} ; [ DW_TAG_subprogram ]
!961 = metadata !{i32 786453, i32 0, metadata !"", i32 0, i32 0, i64 0, i64 0, i64 0, i32 0, null, metadata !962, i32 0, i32 0} ; [ DW_TAG_subroutine_type ]
!962 = metadata !{metadata !963, metadata !478, metadata !80, metadata !80}
!963 = metadata !{i32 786434, null, metadata !"ap_range_ref<32, true>", metadata !152, i32 924, i32 0, i32 0, i32 0, i32 4, null, null, i32 0} ; [ DW_TAG_class_type ]
!964 = metadata !{i32 786478, i32 0, metadata !463, metadata !"operator()", metadata !"operator()", metadata !"_ZN11ap_int_baseILi32ELb1ELb1EEclEii", metadata !152, i32 2013, metadata !961, i1 false, i1 false, i32 0, i32 0, null, i32 256, i1 false, null, null, i32 0, metadata !85, i32 2013} ; [ DW_TAG_subprogram ]
!965 = metadata !{i32 786478, i32 0, metadata !463, metadata !"range", metadata !"range", metadata !"_ZNK11ap_int_baseILi32ELb1ELb1EE5rangeEii", metadata !152, i32 2019, metadata !966, i1 false, i1 false, i32 0, i32 0, null, i32 256, i1 false, null, null, i32 0, metadata !85, i32 2019} ; [ DW_TAG_subprogram ]
!966 = metadata !{i32 786453, i32 0, metadata !"", i32 0, i32 0, i64 0, i64 0, i64 0, i32 0, null, metadata !967, i32 0, i32 0} ; [ DW_TAG_subroutine_type ]
!967 = metadata !{metadata !963, metadata !594, metadata !80, metadata !80}
!968 = metadata !{i32 786478, i32 0, metadata !463, metadata !"operator()", metadata !"operator()", metadata !"_ZNK11ap_int_baseILi32ELb1ELb1EEclEii", metadata !152, i32 2025, metadata !966, i1 false, i1 false, i32 0, i32 0, null, i32 256, i1 false, null, null, i32 0, metadata !85, i32 2025} ; [ DW_TAG_subprogram ]
!969 = metadata !{i32 786478, i32 0, metadata !463, metadata !"operator[]", metadata !"operator[]", metadata !"_ZN11ap_int_baseILi32ELb1ELb1EEixEi", metadata !152, i32 2044, metadata !970, i1 false, i1 false, i32 0, i32 0, null, i32 256, i1 false, null, null, i32 0, metadata !85, i32 2044} ; [ DW_TAG_subprogram ]
!970 = metadata !{i32 786453, i32 0, metadata !"", i32 0, i32 0, i64 0, i64 0, i64 0, i32 0, null, metadata !971, i32 0, i32 0} ; [ DW_TAG_subroutine_type ]
!971 = metadata !{metadata !972, metadata !478, metadata !80}
!972 = metadata !{i32 786434, null, metadata !"ap_bit_ref<32, true>", metadata !152, i32 1194, i32 0, i32 0, i32 0, i32 4, null, null, i32 0} ; [ DW_TAG_class_type ]
!973 = metadata !{i32 786478, i32 0, metadata !463, metadata !"operator[]", metadata !"operator[]", metadata !"_ZNK11ap_int_baseILi32ELb1ELb1EEixEi", metadata !152, i32 2058, metadata !645, i1 false, i1 false, i32 0, i32 0, null, i32 256, i1 false, null, null, i32 0, metadata !85, i32 2058} ; [ DW_TAG_subprogram ]
!974 = metadata !{i32 786478, i32 0, metadata !463, metadata !"bit", metadata !"bit", metadata !"_ZN11ap_int_baseILi32ELb1ELb1EE3bitEi", metadata !152, i32 2072, metadata !970, i1 false, i1 false, i32 0, i32 0, null, i32 256, i1 false, null, null, i32 0, metadata !85, i32 2072} ; [ DW_TAG_subprogram ]
!975 = metadata !{i32 786478, i32 0, metadata !463, metadata !"bit", metadata !"bit", metadata !"_ZNK11ap_int_baseILi32ELb1ELb1EE3bitEi", metadata !152, i32 2086, metadata !645, i1 false, i1 false, i32 0, i32 0, null, i32 256, i1 false, null, null, i32 0, metadata !85, i32 2086} ; [ DW_TAG_subprogram ]
!976 = metadata !{i32 786478, i32 0, metadata !463, metadata !"and_reduce", metadata !"and_reduce", metadata !"_ZN11ap_int_baseILi32ELb1ELb1EE10and_reduceEv", metadata !152, i32 2266, metadata !977, i1 false, i1 false, i32 0, i32 0, null, i32 256, i1 false, null, null, i32 0, metadata !85, i32 2266} ; [ DW_TAG_subprogram ]
!977 = metadata !{i32 786453, i32 0, metadata !"", i32 0, i32 0, i64 0, i64 0, i64 0, i32 0, null, metadata !978, i32 0, i32 0} ; [ DW_TAG_subroutine_type ]
!978 = metadata !{metadata !113, metadata !478}
!979 = metadata !{i32 786478, i32 0, metadata !463, metadata !"nand_reduce", metadata !"nand_reduce", metadata !"_ZN11ap_int_baseILi32ELb1ELb1EE11nand_reduceEv", metadata !152, i32 2269, metadata !977, i1 false, i1 false, i32 0, i32 0, null, i32 256, i1 false, null, null, i32 0, metadata !85, i32 2269} ; [ DW_TAG_subprogram ]
!980 = metadata !{i32 786478, i32 0, metadata !463, metadata !"or_reduce", metadata !"or_reduce", metadata !"_ZN11ap_int_baseILi32ELb1ELb1EE9or_reduceEv", metadata !152, i32 2272, metadata !977, i1 false, i1 false, i32 0, i32 0, null, i32 256, i1 false, null, null, i32 0, metadata !85, i32 2272} ; [ DW_TAG_subprogram ]
!981 = metadata !{i32 786478, i32 0, metadata !463, metadata !"nor_reduce", metadata !"nor_reduce", metadata !"_ZN11ap_int_baseILi32ELb1ELb1EE10nor_reduceEv", metadata !152, i32 2275, metadata !977, i1 false, i1 false, i32 0, i32 0, null, i32 256, i1 false, null, null, i32 0, metadata !85, i32 2275} ; [ DW_TAG_subprogram ]
!982 = metadata !{i32 786478, i32 0, metadata !463, metadata !"xor_reduce", metadata !"xor_reduce", metadata !"_ZN11ap_int_baseILi32ELb1ELb1EE10xor_reduceEv", metadata !152, i32 2278, metadata !977, i1 false, i1 false, i32 0, i32 0, null, i32 256, i1 false, null, null, i32 0, metadata !85, i32 2278} ; [ DW_TAG_subprogram ]
!983 = metadata !{i32 786478, i32 0, metadata !463, metadata !"xnor_reduce", metadata !"xnor_reduce", metadata !"_ZN11ap_int_baseILi32ELb1ELb1EE11xnor_reduceEv", metadata !152, i32 2281, metadata !977, i1 false, i1 false, i32 0, i32 0, null, i32 256, i1 false, null, null, i32 0, metadata !85, i32 2281} ; [ DW_TAG_subprogram ]
!984 = metadata !{i32 786478, i32 0, metadata !463, metadata !"and_reduce", metadata !"and_reduce", metadata !"_ZNK11ap_int_baseILi32ELb1ELb1EE10and_reduceEv", metadata !152, i32 2285, metadata !596, i1 false, i1 false, i32 0, i32 0, null, i32 256, i1 false, null, null, i32 0, metadata !85, i32 2285} ; [ DW_TAG_subprogram ]
!985 = metadata !{i32 786478, i32 0, metadata !463, metadata !"nand_reduce", metadata !"nand_reduce", metadata !"_ZNK11ap_int_baseILi32ELb1ELb1EE11nand_reduceEv", metadata !152, i32 2288, metadata !596, i1 false, i1 false, i32 0, i32 0, null, i32 256, i1 false, null, null, i32 0, metadata !85, i32 2288} ; [ DW_TAG_subprogram ]
!986 = metadata !{i32 786478, i32 0, metadata !463, metadata !"or_reduce", metadata !"or_reduce", metadata !"_ZNK11ap_int_baseILi32ELb1ELb1EE9or_reduceEv", metadata !152, i32 2291, metadata !596, i1 false, i1 false, i32 0, i32 0, null, i32 256, i1 false, null, null, i32 0, metadata !85, i32 2291} ; [ DW_TAG_subprogram ]
!987 = metadata !{i32 786478, i32 0, metadata !463, metadata !"nor_reduce", metadata !"nor_reduce", metadata !"_ZNK11ap_int_baseILi32ELb1ELb1EE10nor_reduceEv", metadata !152, i32 2294, metadata !596, i1 false, i1 false, i32 0, i32 0, null, i32 256, i1 false, null, null, i32 0, metadata !85, i32 2294} ; [ DW_TAG_subprogram ]
!988 = metadata !{i32 786478, i32 0, metadata !463, metadata !"xor_reduce", metadata !"xor_reduce", metadata !"_ZNK11ap_int_baseILi32ELb1ELb1EE10xor_reduceEv", metadata !152, i32 2297, metadata !596, i1 false, i1 false, i32 0, i32 0, null, i32 256, i1 false, null, null, i32 0, metadata !85, i32 2297} ; [ DW_TAG_subprogram ]
!989 = metadata !{i32 786478, i32 0, metadata !463, metadata !"xnor_reduce", metadata !"xnor_reduce", metadata !"_ZNK11ap_int_baseILi32ELb1ELb1EE11xnor_reduceEv", metadata !152, i32 2300, metadata !596, i1 false, i1 false, i32 0, i32 0, null, i32 256, i1 false, null, null, i32 0, metadata !85, i32 2300} ; [ DW_TAG_subprogram ]
!990 = metadata !{i32 786478, i32 0, metadata !463, metadata !"to_string", metadata !"to_string", metadata !"_ZNK11ap_int_baseILi32ELb1ELb1EE9to_stringEPci8BaseModeb", metadata !152, i32 2307, metadata !991, i1 false, i1 false, i32 0, i32 0, null, i32 256, i1 false, null, null, i32 0, metadata !85, i32 2307} ; [ DW_TAG_subprogram ]
!991 = metadata !{i32 786453, i32 0, metadata !"", i32 0, i32 0, i64 0, i64 0, i64 0, i32 0, null, metadata !992, i32 0, i32 0} ; [ DW_TAG_subroutine_type ]
!992 = metadata !{null, metadata !594, metadata !417, metadata !80, metadata !418, metadata !113}
!993 = metadata !{i32 786478, i32 0, metadata !463, metadata !"to_string", metadata !"to_string", metadata !"_ZNK11ap_int_baseILi32ELb1ELb1EE9to_stringE8BaseModeb", metadata !152, i32 2334, metadata !994, i1 false, i1 false, i32 0, i32 0, null, i32 256, i1 false, null, null, i32 0, metadata !85, i32 2334} ; [ DW_TAG_subprogram ]
!994 = metadata !{i32 786453, i32 0, metadata !"", i32 0, i32 0, i64 0, i64 0, i64 0, i32 0, null, metadata !995, i32 0, i32 0} ; [ DW_TAG_subroutine_type ]
!995 = metadata !{metadata !417, metadata !594, metadata !418, metadata !113}
!996 = metadata !{i32 786478, i32 0, metadata !463, metadata !"to_string", metadata !"to_string", metadata !"_ZNK11ap_int_baseILi32ELb1ELb1EE9to_stringEab", metadata !152, i32 2338, metadata !997, i1 false, i1 false, i32 0, i32 0, null, i32 256, i1 false, null, null, i32 0, metadata !85, i32 2338} ; [ DW_TAG_subprogram ]
!997 = metadata !{i32 786453, i32 0, metadata !"", i32 0, i32 0, i64 0, i64 0, i64 0, i32 0, null, metadata !998, i32 0, i32 0} ; [ DW_TAG_subroutine_type ]
!998 = metadata !{metadata !417, metadata !594, metadata !200, metadata !113}
!999 = metadata !{i32 786478, i32 0, metadata !463, metadata !"~ap_int_base", metadata !"~ap_int_base", metadata !"", metadata !152, i32 1398, metadata !476, i1 false, i1 false, i32 0, i32 0, null, i32 320, i1 false, null, null, i32 0, metadata !85, i32 1398} ; [ DW_TAG_subprogram ]
!1000 = metadata !{metadata !1001, metadata !175, metadata !434}
!1001 = metadata !{i32 786480, null, metadata !"_AP_W", metadata !80, i64 32, null, i32 0, i32 0} ; [ DW_TAG_template_value_parameter ]
!1002 = metadata !{i32 3540, i32 159, metadata !1003, metadata !1008}
!1003 = metadata !{i32 786443, metadata !1004, i32 3540, i32 150, metadata !152, i32 6} ; [ DW_TAG_lexical_block ]
!1004 = metadata !{i32 786478, i32 0, metadata !152, metadata !"operator+=<24, true>", metadata !"operator+=<24, true>", metadata !"_ZpLILi24ELb1EER11ap_int_baseIXT_EXT0_EXleT_Li64EEES2_i", metadata !152, i32 3540, metadata !1005, i1 false, i1 true, i32 0, i32 0, null, i32 256, i1 false, null, metadata !1007, null, metadata !85, i32 3540} ; [ DW_TAG_subprogram ]
!1005 = metadata !{i32 786453, i32 0, metadata !"", i32 0, i32 0, i64 0, i64 0, i64 0, i32 0, null, metadata !1006, i32 0, i32 0} ; [ DW_TAG_subroutine_type ]
!1006 = metadata !{metadata !270, metadata !270, metadata !80}
!1007 = metadata !{metadata !433, metadata !175}
!1008 = metadata !{i32 32, i32 2, metadata !148, null}
!1009 = metadata !{i32 38, i32 1, metadata !148, null}
