; ModuleID = '/workspace/latcher32/latcher32/solution1/.autopilot/db/a.o.3.bc'
target datalayout = "e-p:64:64:64-i1:8:8-i8:8:8-i16:16:16-i32:32:32-i64:64:64-f32:32:32-f64:64:64-v64:64:64-v128:128:128-a0:0:64-s0:64:64-f80:128:128-n8:16:32:64-S128"
target triple = "x86_64-unknown-linux-gnu"

@tmp_V = internal unnamed_addr global i32 0       ; [#uses=2 type=i32*]
@state = internal unnamed_addr global i2 0, align 1 ; [#uses=4 type=i2*]
@llvm_global_ctors_1 = appending global [1 x void ()*] [void ()* @_GLOBAL__I_a] ; [#uses=0 type=[1 x void ()*]*]
@llvm_global_ctors_0 = appending global [1 x i32] [i32 65535] ; [#uses=0 type=[1 x i32]*]
@latcher_str = internal unnamed_addr constant [8 x i8] c"latcher\00" ; [#uses=1 type=[8 x i8]*]
@p_str3 = private unnamed_addr constant [13 x i8] c"ap_ctrl_none\00", align 1 ; [#uses=1 type=[13 x i8]*]
@p_str2 = private unnamed_addr constant [1 x i8] zeroinitializer, align 1 ; [#uses=27 type=[1 x i8]*]
@p_str1 = private unnamed_addr constant [5 x i8] c"both\00", align 1 ; [#uses=4 type=[5 x i8]*]
@p_str = private unnamed_addr constant [5 x i8] c"axis\00", align 1 ; [#uses=4 type=[5 x i8]*]

; [#uses=12]
declare void @llvm.dbg.value(metadata, i64, metadata) nounwind readnone

; [#uses=0]
define void @latcher(i32* %in_V_V, i32* %out_V_V, i1 %latch_V) {
codeRepl:
  call void (...)* @_ssdm_op_SpecDataflowPipeline(i32 -1, [1 x i8]* @p_str2) nounwind, !dbg !47 ; [debug line = 30:1]
  call void (...)* @_ssdm_op_SpecBitsMap(i32* %in_V_V), !map !1131
  call void (...)* @_ssdm_op_SpecBitsMap(i32* %out_V_V), !map !1135
  call void (...)* @_ssdm_op_SpecBitsMap(i1 %latch_V), !map !1139
  call void (...)* @_ssdm_op_SpecTopModule([8 x i8]* @latcher_str) nounwind
  call void (...)* @_ssdm_op_SpecInterface(i32* %out_V_V, [5 x i8]* @p_str, i32 1, i32 1, [5 x i8]* @p_str1, i32 0, i32 0, [1 x i8]* @p_str2, [1 x i8]* @p_str2, [1 x i8]* @p_str2, i32 0, i32 0, i32 0, i32 0, [1 x i8]* @p_str2, [1 x i8]* @p_str2) nounwind, !dbg !1145 ; [debug line = 27:1]
  call void (...)* @_ssdm_op_SpecInterface(i32* %in_V_V, [5 x i8]* @p_str, i32 1, i32 1, [5 x i8]* @p_str1, i32 0, i32 0, [1 x i8]* @p_str2, [1 x i8]* @p_str2, [1 x i8]* @p_str2, i32 0, i32 0, i32 0, i32 0, [1 x i8]* @p_str2, [1 x i8]* @p_str2) nounwind, !dbg !1146 ; [debug line = 28:1]
  call void (...)* @_ssdm_op_SpecInterface(i32 0, [13 x i8]* @p_str3, i32 0, i32 0, [1 x i8]* @p_str2, i32 0, i32 0, [1 x i8]* @p_str2, [1 x i8]* @p_str2, [1 x i8]* @p_str2, i32 0, i32 0, i32 0, i32 0, [1 x i8]* @p_str2, [1 x i8]* @p_str2) nounwind, !dbg !1147 ; [debug line = 29:1]
  %latch_V_read = call i1 @_ssdm_op_Read.ap_auto.i1(i1 %latch_V) ; [#uses=1 type=i1]
  call void @llvm.dbg.value(metadata !{i32* %in_V_V}, i64 0, metadata !1148), !dbg !1159 ; [debug line = 23:14] [debug variable = in.V.V]
  call void @llvm.dbg.value(metadata !{i32* %out_V_V}, i64 0, metadata !1160), !dbg !1162 ; [debug line = 24:14] [debug variable = out.V.V]
  call fastcc void @Block_codeRepl1_proc(i1 %latch_V_read, i32* %in_V_V, i32* %out_V_V)
  ret void, !dbg !1163                            ; [debug line = 59:1]
}

; [#uses=1]
define weak void @_ssdm_op_Write.axis.volatile.i32P(i32*, i32) {
entry:
  store i32 %1, i32* %0
  ret void
}

; [#uses=1]
define weak void @_ssdm_op_SpecTopModule(...) {
entry:
  ret void
}

; [#uses=5]
define weak void @_ssdm_op_SpecInterface(...) nounwind {
entry:
  ret void
}

; [#uses=1]
define weak void @_ssdm_op_SpecDataflowPipeline(...) nounwind {
entry:
  ret void
}

; [#uses=3]
define weak void @_ssdm_op_SpecBitsMap(...) {
entry:
  ret void
}

; [#uses=1]
define weak i32 @_ssdm_op_Read.axis.volatile.i32P(i32*) {
entry:
  %empty = load i32* %0                           ; [#uses=1 type=i32]
  ret i32 %empty
}

; [#uses=2]
define weak i1 @_ssdm_op_Read.ap_auto.i1(i1) {
entry:
  ret i1 %0
}

; [#uses=1]
define weak i1 @_ssdm_op_NbWriteReq.axis.i32P(i32*, i32) {
entry:
  ret i1 true
}

; [#uses=1]
define weak i1 @_ssdm_op_NbReadReq.axis.i32P(i32*, i32) {
entry:
  ret i1 true
}

; [#uses=1]
declare void @_GLOBAL__I_a() nounwind section ".text.startup"

; [#uses=1]
define internal fastcc void @Block_codeRepl1_proc(i1 %latch_V, i32* %in_V_V, i32* %out_V_V) {
newFuncRoot:
  call void (...)* @_ssdm_op_SpecInterface(i32* %in_V_V, [5 x i8]* @p_str, i32 1, i32 1, [5 x i8]* @p_str1, i32 0, i32 0, [1 x i8]* @p_str2, [1 x i8]* @p_str2, [1 x i8]* @p_str2, i32 0, i32 0, i32 0, i32 0, [1 x i8]* @p_str2, [1 x i8]* @p_str2)
  call void (...)* @_ssdm_op_SpecInterface(i32* %out_V_V, [5 x i8]* @p_str, i32 1, i32 1, [5 x i8]* @p_str1, i32 0, i32 0, [1 x i8]* @p_str2, [1 x i8]* @p_str2, [1 x i8]* @p_str2, i32 0, i32 0, i32 0, i32 0, [1 x i8]* @p_str2, [1 x i8]* @p_str2)
  %latch_V_read = call i1 @_ssdm_op_Read.ap_auto.i1(i1 %latch_V) ; [#uses=1 type=i1]
  %state_load = load i2* @state, align 1, !dbg !1164 ; [#uses=1 type=i2] [debug line = 39:2]
  switch i2 %state_load, label %._crit_edge14 [
    i2 0, label %0
    i2 1, label %1
    i2 -2, label %2
  ], !dbg !1164                                   ; [debug line = 39:2]

._crit_edge14:                                    ; preds = %._crit_edge17, %._crit_edge16, %._crit_edge15, %newFuncRoot
  ret void

; <label>:0                                       ; preds = %newFuncRoot
  br i1 %latch_V_read, label %3, label %._crit_edge15, !dbg !1165 ; [debug line = 41:8]

; <label>:1                                       ; preds = %newFuncRoot
  call void @llvm.dbg.value(metadata !{i32* %in_V_V}, i64 0, metadata !1167), !dbg !1172 ; [debug line = 112:48@44:9] [debug variable = stream<ap_uint<32> >.V.V]
  %tmp = call i1 @_ssdm_op_NbReadReq.axis.i32P(i32* %in_V_V, i32 1), !dbg !1174 ; [#uses=1 type=i1] [debug line = 113:20@44:9]
  call void @llvm.dbg.value(metadata !{i1 %tmp}, i64 0, metadata !1176), !dbg !1174 ; [debug line = 113:20@44:9] [debug variable = tmp]
  br i1 %tmp, label %4, label %._crit_edge16, !dbg !1173 ; [debug line = 44:9]

; <label>:2                                       ; preds = %newFuncRoot
  call void @llvm.dbg.value(metadata !{i32* %out_V_V}, i64 0, metadata !1177), !dbg !1180 ; [debug line = 117:48@50:9] [debug variable = stream<ap_uint<32> >.V.V]
  %tmp_1 = call i1 @_ssdm_op_NbWriteReq.axis.i32P(i32* %out_V_V, i32 1), !dbg !1182 ; [#uses=1 type=i1] [debug line = 118:20@50:9]
  call void @llvm.dbg.value(metadata !{i1 %tmp_1}, i64 0, metadata !1184), !dbg !1182 ; [debug line = 118:20@50:9] [debug variable = tmp]
  br i1 %tmp_1, label %5, label %._crit_edge17, !dbg !1181 ; [debug line = 50:9]

; <label>:3                                       ; preds = %0
  store i2 1, i2* @state, align 1, !dbg !1185     ; [debug line = 41:20]
  br label %._crit_edge15, !dbg !1185             ; [debug line = 41:20]

._crit_edge15:                                    ; preds = %3, %0
  br label %._crit_edge14, !dbg !1186             ; [debug line = 42:4]

; <label>:4                                       ; preds = %1
  call void @llvm.dbg.value(metadata !{i32* %in_V_V}, i64 0, metadata !1187), !dbg !1191 ; [debug line = 101:48@45:5] [debug variable = stream<ap_uint<32> >.V.V]
  call void @llvm.dbg.value(metadata !{i32* %in_V_V}, i64 0, metadata !1194), !dbg !1197 ; [debug line = 123:48@102:9@45:5] [debug variable = stream<ap_uint<32> >.V.V]
  %tmp_V_1_1 = call i32 @_ssdm_op_Read.axis.volatile.i32P(i32* %in_V_V), !dbg !1200 ; [#uses=1 type=i32] [debug line = 125:9@102:9@45:5]
  call void @llvm.dbg.value(metadata !{i32 %tmp_V_1_1}, i64 0, metadata !1202), !dbg !1200 ; [debug line = 125:9@102:9@45:5] [debug variable = tmp.V]
  store i32 %tmp_V_1_1, i32* @tmp_V, align 4, !dbg !1204 ; [debug line = 280:10@126:9@102:9@45:5]
  store i2 -2, i2* @state, align 1, !dbg !1208    ; [debug line = 46:5]
  br label %._crit_edge16, !dbg !1209             ; [debug line = 47:4]

._crit_edge16:                                    ; preds = %4, %1
  br label %._crit_edge14, !dbg !1210             ; [debug line = 48:4]

; <label>:5                                       ; preds = %2
  call void @llvm.dbg.value(metadata !{i32* %out_V_V}, i64 0, metadata !1211), !dbg !1214 ; [debug line = 105:48@51:5] [debug variable = stream<ap_uint<32> >.V.V]
  call void @llvm.dbg.value(metadata !{i32* %out_V_V}, i64 0, metadata !1217), !dbg !1220 ; [debug line = 144:48@106:9@51:5] [debug variable = stream<ap_uint<32> >.V.V]
  %tmp_V_1 = load i32* @tmp_V, align 4, !dbg !1223 ; [#uses=1 type=i32] [debug line = 145:31@106:9@51:5]
  call void @llvm.dbg.value(metadata !{i32 %tmp_V_1}, i64 0, metadata !1225), !dbg !1223 ; [debug line = 145:31@106:9@51:5] [debug variable = tmp.V]
  call void @_ssdm_op_Write.axis.volatile.i32P(i32* %out_V_V, i32 %tmp_V_1), !dbg !1227 ; [debug line = 146:9@106:9@51:5]
  store i2 0, i2* @state, align 1, !dbg !1228     ; [debug line = 52:5]
  br label %._crit_edge17, !dbg !1229             ; [debug line = 53:4]

._crit_edge17:                                    ; preds = %5, %2
  br label %._crit_edge14, !dbg !1230             ; [debug line = 54:4]
}

!opencl.kernels = !{!0, !7, !13, !15, !21, !24, !26, !15, !29, !35, !35, !15, !38, !15, !15, !15, !15}
!hls.encrypted.func = !{}
!llvm.map.gv = !{!40}

!0 = metadata !{null, metadata !1, metadata !2, metadata !3, metadata !4, metadata !5, metadata !6}
!1 = metadata !{metadata !"kernel_arg_addr_space", i32 0, i32 0, i32 0}
!2 = metadata !{metadata !"kernel_arg_access_qual", metadata !"none", metadata !"none", metadata !"none"}
!3 = metadata !{metadata !"kernel_arg_type", metadata !"stream<dt> &", metadata !"stream<dt> &", metadata !"ap_uint<1>"}
!4 = metadata !{metadata !"kernel_arg_type_qual", metadata !"", metadata !"", metadata !""}
!5 = metadata !{metadata !"kernel_arg_name", metadata !"in", metadata !"out", metadata !"latch"}
!6 = metadata !{metadata !"reqd_work_group_size", i32 1, i32 1, i32 1}
!7 = metadata !{null, metadata !8, metadata !9, metadata !10, metadata !11, metadata !12, metadata !6}
!8 = metadata !{metadata !"kernel_arg_addr_space", i32 0}
!9 = metadata !{metadata !"kernel_arg_access_qual", metadata !"none"}
!10 = metadata !{metadata !"kernel_arg_type", metadata !"const struct ap_uint<32> &"}
!11 = metadata !{metadata !"kernel_arg_type_qual", metadata !""}
!12 = metadata !{metadata !"kernel_arg_name", metadata !"wdata"}
!13 = metadata !{null, metadata !8, metadata !9, metadata !10, metadata !11, metadata !14, metadata !6}
!14 = metadata !{metadata !"kernel_arg_name", metadata !"din"}
!15 = metadata !{null, metadata !16, metadata !17, metadata !18, metadata !19, metadata !20, metadata !6}
!16 = metadata !{metadata !"kernel_arg_addr_space"}
!17 = metadata !{metadata !"kernel_arg_access_qual"}
!18 = metadata !{metadata !"kernel_arg_type"}
!19 = metadata !{metadata !"kernel_arg_type_qual"}
!20 = metadata !{metadata !"kernel_arg_name"}
!21 = metadata !{null, metadata !8, metadata !9, metadata !22, metadata !11, metadata !23, metadata !6}
!22 = metadata !{metadata !"kernel_arg_type", metadata !"struct ap_uint<32> &"}
!23 = metadata !{metadata !"kernel_arg_name", metadata !"rdata"}
!24 = metadata !{null, metadata !8, metadata !9, metadata !22, metadata !11, metadata !25, metadata !6}
!25 = metadata !{metadata !"kernel_arg_name", metadata !"dout"}
!26 = metadata !{null, metadata !8, metadata !9, metadata !27, metadata !11, metadata !28, metadata !6}
!27 = metadata !{metadata !"kernel_arg_type", metadata !"const ap_uint<32> &"}
!28 = metadata !{metadata !"kernel_arg_name", metadata !"op2"}
!29 = metadata !{null, metadata !30, metadata !31, metadata !32, metadata !33, metadata !34, metadata !6}
!30 = metadata !{metadata !"kernel_arg_addr_space", i32 0, i32 0}
!31 = metadata !{metadata !"kernel_arg_access_qual", metadata !"none", metadata !"none"}
!32 = metadata !{metadata !"kernel_arg_type", metadata !"const ap_int_base<1, false> &", metadata !"int"}
!33 = metadata !{metadata !"kernel_arg_type_qual", metadata !"", metadata !""}
!34 = metadata !{metadata !"kernel_arg_name", metadata !"op", metadata !"op2"}
!35 = metadata !{null, metadata !8, metadata !9, metadata !36, metadata !11, metadata !37, metadata !6}
!36 = metadata !{metadata !"kernel_arg_type", metadata !"int"}
!37 = metadata !{metadata !"kernel_arg_name", metadata !"op"}
!38 = metadata !{null, metadata !8, metadata !9, metadata !39, metadata !11, metadata !28, metadata !6}
!39 = metadata !{metadata !"kernel_arg_type", metadata !"const ap_int_base<32, true> &"}
!40 = metadata !{metadata !41, [1 x i32]* @llvm_global_ctors_0}
!41 = metadata !{metadata !42}
!42 = metadata !{i32 0, i32 31, metadata !43}
!43 = metadata !{metadata !44}
!44 = metadata !{metadata !"llvm.global_ctors.0", metadata !45, metadata !"", i32 0, i32 31}
!45 = metadata !{metadata !46}
!46 = metadata !{i32 0, i32 0, i32 1}
!47 = metadata !{i32 30, i32 1, metadata !48, null}
!48 = metadata !{i32 786443, metadata !49, i32 26, i32 4, metadata !50, i32 0} ; [ DW_TAG_lexical_block ]
!49 = metadata !{i32 786478, i32 0, metadata !50, metadata !"latcher", metadata !"latcher", metadata !"_Z7latcherRN3hls6streamI7ap_uintILi32EEEES4_S1_ILi1EE", metadata !50, i32 22, metadata !51, i1 false, i1 true, i32 0, i32 0, null, i32 256, i1 false, null, null, null, metadata !76, i32 26} ; [ DW_TAG_subprogram ]
!50 = metadata !{i32 786473, metadata !"latcher.cpp", metadata !"/workspace/latcher32", null} ; [ DW_TAG_file_type ]
!51 = metadata !{i32 786453, i32 0, metadata !"", i32 0, i32 0, i64 0, i64 0, i64 0, i32 0, null, metadata !52, i32 0, i32 0} ; [ DW_TAG_subroutine_type ]
!52 = metadata !{null, metadata !53, metadata !53, metadata !812}
!53 = metadata !{i32 786448, null, null, null, i32 0, i64 0, i64 0, i64 0, i32 0, metadata !54} ; [ DW_TAG_reference_type ]
!54 = metadata !{i32 786434, metadata !55, metadata !"stream<ap_uint<32> >", metadata !56, i32 79, i64 32, i64 32, i32 0, i32 0, null, metadata !57, i32 0, null, metadata !810} ; [ DW_TAG_class_type ]
!55 = metadata !{i32 786489, null, metadata !"hls", metadata !56, i32 69} ; [ DW_TAG_namespace ]
!56 = metadata !{i32 786473, metadata !"/opt/Xilinx/Vivado_HLS/2017.2/common/technology/autopilot/hls_stream.h", metadata !"/workspace/latcher32", null} ; [ DW_TAG_file_type ]
!57 = metadata !{metadata !58, metadata !770, metadata !774, metadata !777, metadata !782, metadata !785, metadata !788, metadata !791, metadata !795, metadata !796, metadata !797, metadata !800, metadata !803, metadata !804, metadata !807}
!58 = metadata !{i32 786445, metadata !54, metadata !"V", metadata !56, i32 163, i64 32, i64 32, i64 0, i32 0, metadata !59} ; [ DW_TAG_member ]
!59 = metadata !{i32 786434, null, metadata !"ap_uint<32>", metadata !60, i32 182, i64 32, i64 32, i32 0, i32 0, null, metadata !61, i32 0, null, metadata !769} ; [ DW_TAG_class_type ]
!60 = metadata !{i32 786473, metadata !"/opt/Xilinx/Vivado_HLS/2017.2/common/technology/autopilot/ap_int.h", metadata !"/workspace/latcher32", null} ; [ DW_TAG_file_type ]
!61 = metadata !{metadata !62, metadata !698, metadata !702, metadata !705, metadata !708, metadata !711, metadata !714, metadata !717, metadata !720, metadata !723, metadata !726, metadata !729, metadata !732, metadata !735, metadata !738, metadata !741, metadata !744, metadata !747, metadata !750, metadata !757, metadata !762, metadata !766}
!62 = metadata !{i32 786460, metadata !59, null, metadata !60, i32 0, i64 0, i64 0, i64 0, i32 0, metadata !63} ; [ DW_TAG_inheritance ]
!63 = metadata !{i32 786434, null, metadata !"ap_int_base<32, false, true>", metadata !64, i32 1398, i64 32, i64 32, i32 0, i32 0, null, metadata !65, i32 0, null, metadata !697} ; [ DW_TAG_class_type ]
!64 = metadata !{i32 786473, metadata !"/opt/Xilinx/Vivado_HLS/2017.2/common/technology/autopilot/ap_int_syn.h", metadata !"/workspace/latcher32", null} ; [ DW_TAG_file_type ]
!65 = metadata !{metadata !66, metadata !83, metadata !87, metadata !95, metadata !101, metadata !104, metadata !108, metadata !112, metadata !116, metadata !120, metadata !123, metadata !127, metadata !131, metadata !135, metadata !140, metadata !145, metadata !150, metadata !154, metadata !158, metadata !164, metadata !167, metadata !171, metadata !174, metadata !177, metadata !178, metadata !182, metadata !185, metadata !188, metadata !191, metadata !194, metadata !197, metadata !200, metadata !203, metadata !206, metadata !209, metadata !212, metadata !215, metadata !225, metadata !228, metadata !231, metadata !234, metadata !237, metadata !240, metadata !243, metadata !246, metadata !249, metadata !252, metadata !255, metadata !258, metadata !261, metadata !262, metadata !266, metadata !269, metadata !270, metadata !271, metadata !272, metadata !273, metadata !274, metadata !277, metadata !278, metadata !281, metadata !282, metadata !283, metadata !284, metadata !285, metadata !286, metadata !289, metadata !290, metadata !291, metadata !294, metadata !295, metadata !298, metadata !299, metadata !600, metadata !662, metadata !663, metadata !666, metadata !667, metadata !671, metadata !672, metadata !673, metadata !674, metadata !677, metadata !678, metadata !679, metadata !680, metadata !681, metadata !682, metadata !683, metadata !684, metadata !685, metadata !686, metadata !687, metadata !688, metadata !691, metadata !694}
!66 = metadata !{i32 786460, metadata !63, null, metadata !64, i32 0, i64 0, i64 0, i64 0, i32 0, metadata !67} ; [ DW_TAG_inheritance ]
!67 = metadata !{i32 786434, null, metadata !"ssdm_int<32 + 1024 * 0, false>", metadata !68, i32 34, i64 32, i64 32, i32 0, i32 0, null, metadata !69, i32 0, null, metadata !78} ; [ DW_TAG_class_type ]
!68 = metadata !{i32 786473, metadata !"/opt/Xilinx/Vivado_HLS/2017.2/common/technology/autopilot/etc/autopilot_dt.def", metadata !"/workspace/latcher32", null} ; [ DW_TAG_file_type ]
!69 = metadata !{metadata !70, metadata !72}
!70 = metadata !{i32 786445, metadata !67, metadata !"V", metadata !68, i32 34, i64 32, i64 32, i64 0, i32 0, metadata !71} ; [ DW_TAG_member ]
!71 = metadata !{i32 786468, null, metadata !"uint32", null, i32 0, i64 32, i64 32, i64 0, i32 0, i32 7} ; [ DW_TAG_base_type ]
!72 = metadata !{i32 786478, i32 0, metadata !67, metadata !"ssdm_int", metadata !"ssdm_int", metadata !"", metadata !68, i32 34, metadata !73, i1 false, i1 false, i32 0, i32 0, null, i32 256, i1 false, null, null, i32 0, metadata !76, i32 34} ; [ DW_TAG_subprogram ]
!73 = metadata !{i32 786453, i32 0, metadata !"", i32 0, i32 0, i64 0, i64 0, i64 0, i32 0, null, metadata !74, i32 0, i32 0} ; [ DW_TAG_subroutine_type ]
!74 = metadata !{null, metadata !75}
!75 = metadata !{i32 786447, i32 0, metadata !"", i32 0, i32 0, i64 64, i64 64, i64 0, i32 64, metadata !67} ; [ DW_TAG_pointer_type ]
!76 = metadata !{metadata !77}
!77 = metadata !{i32 786468}                      ; [ DW_TAG_base_type ]
!78 = metadata !{metadata !79, metadata !81}
!79 = metadata !{i32 786480, null, metadata !"_AP_N", metadata !80, i64 32, null, i32 0, i32 0} ; [ DW_TAG_template_value_parameter ]
!80 = metadata !{i32 786468, null, metadata !"int", null, i32 0, i64 32, i64 32, i64 0, i32 0, i32 5} ; [ DW_TAG_base_type ]
!81 = metadata !{i32 786480, null, metadata !"_AP_S", metadata !82, i64 0, null, i32 0, i32 0} ; [ DW_TAG_template_value_parameter ]
!82 = metadata !{i32 786468, null, metadata !"bool", null, i32 0, i64 8, i64 8, i64 0, i32 0, i32 2} ; [ DW_TAG_base_type ]
!83 = metadata !{i32 786478, i32 0, metadata !63, metadata !"ap_int_base", metadata !"ap_int_base", metadata !"", metadata !64, i32 1439, metadata !84, i1 false, i1 false, i32 0, i32 0, null, i32 256, i1 false, null, null, i32 0, metadata !76, i32 1439} ; [ DW_TAG_subprogram ]
!84 = metadata !{i32 786453, i32 0, metadata !"", i32 0, i32 0, i64 0, i64 0, i64 0, i32 0, null, metadata !85, i32 0, i32 0} ; [ DW_TAG_subroutine_type ]
!85 = metadata !{null, metadata !86}
!86 = metadata !{i32 786447, i32 0, metadata !"", i32 0, i32 0, i64 64, i64 64, i64 0, i32 64, metadata !63} ; [ DW_TAG_pointer_type ]
!87 = metadata !{i32 786478, i32 0, metadata !63, metadata !"ap_int_base<32, false>", metadata !"ap_int_base<32, false>", metadata !"", metadata !64, i32 1451, metadata !88, i1 false, i1 false, i32 0, i32 0, null, i32 256, i1 false, null, metadata !92, i32 0, metadata !76, i32 1451} ; [ DW_TAG_subprogram ]
!88 = metadata !{i32 786453, i32 0, metadata !"", i32 0, i32 0, i64 0, i64 0, i64 0, i32 0, null, metadata !89, i32 0, i32 0} ; [ DW_TAG_subroutine_type ]
!89 = metadata !{null, metadata !86, metadata !90}
!90 = metadata !{i32 786448, null, null, null, i32 0, i64 0, i64 0, i64 0, i32 0, metadata !91} ; [ DW_TAG_reference_type ]
!91 = metadata !{i32 786470, null, metadata !"", null, i32 0, i64 0, i64 0, i64 0, i32 0, metadata !63} ; [ DW_TAG_const_type ]
!92 = metadata !{metadata !93, metadata !94}
!93 = metadata !{i32 786480, null, metadata !"_AP_W2", metadata !80, i64 32, null, i32 0, i32 0} ; [ DW_TAG_template_value_parameter ]
!94 = metadata !{i32 786480, null, metadata !"_AP_S2", metadata !82, i64 0, null, i32 0, i32 0} ; [ DW_TAG_template_value_parameter ]
!95 = metadata !{i32 786478, i32 0, metadata !63, metadata !"ap_int_base<32, false>", metadata !"ap_int_base<32, false>", metadata !"", metadata !64, i32 1454, metadata !96, i1 false, i1 false, i32 0, i32 0, null, i32 256, i1 false, null, metadata !92, i32 0, metadata !76, i32 1454} ; [ DW_TAG_subprogram ]
!96 = metadata !{i32 786453, i32 0, metadata !"", i32 0, i32 0, i64 0, i64 0, i64 0, i32 0, null, metadata !97, i32 0, i32 0} ; [ DW_TAG_subroutine_type ]
!97 = metadata !{null, metadata !86, metadata !98}
!98 = metadata !{i32 786448, null, null, null, i32 0, i64 0, i64 0, i64 0, i32 0, metadata !99} ; [ DW_TAG_reference_type ]
!99 = metadata !{i32 786470, null, metadata !"", null, i32 0, i64 0, i64 0, i64 0, i32 0, metadata !100} ; [ DW_TAG_const_type ]
!100 = metadata !{i32 786485, null, metadata !"", null, i32 0, i64 0, i64 0, i64 0, i32 0, metadata !63} ; [ DW_TAG_volatile_type ]
!101 = metadata !{i32 786478, i32 0, metadata !63, metadata !"ap_int_base", metadata !"ap_int_base", metadata !"", metadata !64, i32 1461, metadata !102, i1 false, i1 false, i32 0, i32 0, null, i32 384, i1 false, null, null, i32 0, metadata !76, i32 1461} ; [ DW_TAG_subprogram ]
!102 = metadata !{i32 786453, i32 0, metadata !"", i32 0, i32 0, i64 0, i64 0, i64 0, i32 0, null, metadata !103, i32 0, i32 0} ; [ DW_TAG_subroutine_type ]
!103 = metadata !{null, metadata !86, metadata !82}
!104 = metadata !{i32 786478, i32 0, metadata !63, metadata !"ap_int_base", metadata !"ap_int_base", metadata !"", metadata !64, i32 1462, metadata !105, i1 false, i1 false, i32 0, i32 0, null, i32 384, i1 false, null, null, i32 0, metadata !76, i32 1462} ; [ DW_TAG_subprogram ]
!105 = metadata !{i32 786453, i32 0, metadata !"", i32 0, i32 0, i64 0, i64 0, i64 0, i32 0, null, metadata !106, i32 0, i32 0} ; [ DW_TAG_subroutine_type ]
!106 = metadata !{null, metadata !86, metadata !107}
!107 = metadata !{i32 786468, null, metadata !"signed char", null, i32 0, i64 8, i64 8, i64 0, i32 0, i32 6} ; [ DW_TAG_base_type ]
!108 = metadata !{i32 786478, i32 0, metadata !63, metadata !"ap_int_base", metadata !"ap_int_base", metadata !"", metadata !64, i32 1463, metadata !109, i1 false, i1 false, i32 0, i32 0, null, i32 384, i1 false, null, null, i32 0, metadata !76, i32 1463} ; [ DW_TAG_subprogram ]
!109 = metadata !{i32 786453, i32 0, metadata !"", i32 0, i32 0, i64 0, i64 0, i64 0, i32 0, null, metadata !110, i32 0, i32 0} ; [ DW_TAG_subroutine_type ]
!110 = metadata !{null, metadata !86, metadata !111}
!111 = metadata !{i32 786468, null, metadata !"unsigned char", null, i32 0, i64 8, i64 8, i64 0, i32 0, i32 8} ; [ DW_TAG_base_type ]
!112 = metadata !{i32 786478, i32 0, metadata !63, metadata !"ap_int_base", metadata !"ap_int_base", metadata !"", metadata !64, i32 1464, metadata !113, i1 false, i1 false, i32 0, i32 0, null, i32 384, i1 false, null, null, i32 0, metadata !76, i32 1464} ; [ DW_TAG_subprogram ]
!113 = metadata !{i32 786453, i32 0, metadata !"", i32 0, i32 0, i64 0, i64 0, i64 0, i32 0, null, metadata !114, i32 0, i32 0} ; [ DW_TAG_subroutine_type ]
!114 = metadata !{null, metadata !86, metadata !115}
!115 = metadata !{i32 786468, null, metadata !"short", null, i32 0, i64 16, i64 16, i64 0, i32 0, i32 5} ; [ DW_TAG_base_type ]
!116 = metadata !{i32 786478, i32 0, metadata !63, metadata !"ap_int_base", metadata !"ap_int_base", metadata !"", metadata !64, i32 1465, metadata !117, i1 false, i1 false, i32 0, i32 0, null, i32 384, i1 false, null, null, i32 0, metadata !76, i32 1465} ; [ DW_TAG_subprogram ]
!117 = metadata !{i32 786453, i32 0, metadata !"", i32 0, i32 0, i64 0, i64 0, i64 0, i32 0, null, metadata !118, i32 0, i32 0} ; [ DW_TAG_subroutine_type ]
!118 = metadata !{null, metadata !86, metadata !119}
!119 = metadata !{i32 786468, null, metadata !"unsigned short", null, i32 0, i64 16, i64 16, i64 0, i32 0, i32 7} ; [ DW_TAG_base_type ]
!120 = metadata !{i32 786478, i32 0, metadata !63, metadata !"ap_int_base", metadata !"ap_int_base", metadata !"", metadata !64, i32 1466, metadata !121, i1 false, i1 false, i32 0, i32 0, null, i32 384, i1 false, null, null, i32 0, metadata !76, i32 1466} ; [ DW_TAG_subprogram ]
!121 = metadata !{i32 786453, i32 0, metadata !"", i32 0, i32 0, i64 0, i64 0, i64 0, i32 0, null, metadata !122, i32 0, i32 0} ; [ DW_TAG_subroutine_type ]
!122 = metadata !{null, metadata !86, metadata !80}
!123 = metadata !{i32 786478, i32 0, metadata !63, metadata !"ap_int_base", metadata !"ap_int_base", metadata !"", metadata !64, i32 1467, metadata !124, i1 false, i1 false, i32 0, i32 0, null, i32 384, i1 false, null, null, i32 0, metadata !76, i32 1467} ; [ DW_TAG_subprogram ]
!124 = metadata !{i32 786453, i32 0, metadata !"", i32 0, i32 0, i64 0, i64 0, i64 0, i32 0, null, metadata !125, i32 0, i32 0} ; [ DW_TAG_subroutine_type ]
!125 = metadata !{null, metadata !86, metadata !126}
!126 = metadata !{i32 786468, null, metadata !"unsigned int", null, i32 0, i64 32, i64 32, i64 0, i32 0, i32 7} ; [ DW_TAG_base_type ]
!127 = metadata !{i32 786478, i32 0, metadata !63, metadata !"ap_int_base", metadata !"ap_int_base", metadata !"", metadata !64, i32 1468, metadata !128, i1 false, i1 false, i32 0, i32 0, null, i32 384, i1 false, null, null, i32 0, metadata !76, i32 1468} ; [ DW_TAG_subprogram ]
!128 = metadata !{i32 786453, i32 0, metadata !"", i32 0, i32 0, i64 0, i64 0, i64 0, i32 0, null, metadata !129, i32 0, i32 0} ; [ DW_TAG_subroutine_type ]
!129 = metadata !{null, metadata !86, metadata !130}
!130 = metadata !{i32 786468, null, metadata !"long int", null, i32 0, i64 64, i64 64, i64 0, i32 0, i32 5} ; [ DW_TAG_base_type ]
!131 = metadata !{i32 786478, i32 0, metadata !63, metadata !"ap_int_base", metadata !"ap_int_base", metadata !"", metadata !64, i32 1469, metadata !132, i1 false, i1 false, i32 0, i32 0, null, i32 384, i1 false, null, null, i32 0, metadata !76, i32 1469} ; [ DW_TAG_subprogram ]
!132 = metadata !{i32 786453, i32 0, metadata !"", i32 0, i32 0, i64 0, i64 0, i64 0, i32 0, null, metadata !133, i32 0, i32 0} ; [ DW_TAG_subroutine_type ]
!133 = metadata !{null, metadata !86, metadata !134}
!134 = metadata !{i32 786468, null, metadata !"long unsigned int", null, i32 0, i64 64, i64 64, i64 0, i32 0, i32 7} ; [ DW_TAG_base_type ]
!135 = metadata !{i32 786478, i32 0, metadata !63, metadata !"ap_int_base", metadata !"ap_int_base", metadata !"", metadata !64, i32 1470, metadata !136, i1 false, i1 false, i32 0, i32 0, null, i32 384, i1 false, null, null, i32 0, metadata !76, i32 1470} ; [ DW_TAG_subprogram ]
!136 = metadata !{i32 786453, i32 0, metadata !"", i32 0, i32 0, i64 0, i64 0, i64 0, i32 0, null, metadata !137, i32 0, i32 0} ; [ DW_TAG_subroutine_type ]
!137 = metadata !{null, metadata !86, metadata !138}
!138 = metadata !{i32 786454, null, metadata !"ap_slong", metadata !64, i32 112, i64 0, i64 0, i64 0, i32 0, metadata !139} ; [ DW_TAG_typedef ]
!139 = metadata !{i32 786468, null, metadata !"long long int", null, i32 0, i64 64, i64 64, i64 0, i32 0, i32 5} ; [ DW_TAG_base_type ]
!140 = metadata !{i32 786478, i32 0, metadata !63, metadata !"ap_int_base", metadata !"ap_int_base", metadata !"", metadata !64, i32 1471, metadata !141, i1 false, i1 false, i32 0, i32 0, null, i32 384, i1 false, null, null, i32 0, metadata !76, i32 1471} ; [ DW_TAG_subprogram ]
!141 = metadata !{i32 786453, i32 0, metadata !"", i32 0, i32 0, i64 0, i64 0, i64 0, i32 0, null, metadata !142, i32 0, i32 0} ; [ DW_TAG_subroutine_type ]
!142 = metadata !{null, metadata !86, metadata !143}
!143 = metadata !{i32 786454, null, metadata !"ap_ulong", metadata !64, i32 111, i64 0, i64 0, i64 0, i32 0, metadata !144} ; [ DW_TAG_typedef ]
!144 = metadata !{i32 786468, null, metadata !"long long unsigned int", null, i32 0, i64 64, i64 64, i64 0, i32 0, i32 7} ; [ DW_TAG_base_type ]
!145 = metadata !{i32 786478, i32 0, metadata !63, metadata !"ap_int_base", metadata !"ap_int_base", metadata !"", metadata !64, i32 1472, metadata !146, i1 false, i1 false, i32 0, i32 0, null, i32 384, i1 false, null, null, i32 0, metadata !76, i32 1472} ; [ DW_TAG_subprogram ]
!146 = metadata !{i32 786453, i32 0, metadata !"", i32 0, i32 0, i64 0, i64 0, i64 0, i32 0, null, metadata !147, i32 0, i32 0} ; [ DW_TAG_subroutine_type ]
!147 = metadata !{null, metadata !86, metadata !148}
!148 = metadata !{i32 786454, null, metadata !"half", metadata !64, i32 54, i64 0, i64 0, i64 0, i32 0, metadata !149} ; [ DW_TAG_typedef ]
!149 = metadata !{i32 786468, null, metadata !"half", null, i32 0, i64 16, i64 16, i64 0, i32 0, i32 4} ; [ DW_TAG_base_type ]
!150 = metadata !{i32 786478, i32 0, metadata !63, metadata !"ap_int_base", metadata !"ap_int_base", metadata !"", metadata !64, i32 1473, metadata !151, i1 false, i1 false, i32 0, i32 0, null, i32 384, i1 false, null, null, i32 0, metadata !76, i32 1473} ; [ DW_TAG_subprogram ]
!151 = metadata !{i32 786453, i32 0, metadata !"", i32 0, i32 0, i64 0, i64 0, i64 0, i32 0, null, metadata !152, i32 0, i32 0} ; [ DW_TAG_subroutine_type ]
!152 = metadata !{null, metadata !86, metadata !153}
!153 = metadata !{i32 786468, null, metadata !"float", null, i32 0, i64 32, i64 32, i64 0, i32 0, i32 4} ; [ DW_TAG_base_type ]
!154 = metadata !{i32 786478, i32 0, metadata !63, metadata !"ap_int_base", metadata !"ap_int_base", metadata !"", metadata !64, i32 1474, metadata !155, i1 false, i1 false, i32 0, i32 0, null, i32 384, i1 false, null, null, i32 0, metadata !76, i32 1474} ; [ DW_TAG_subprogram ]
!155 = metadata !{i32 786453, i32 0, metadata !"", i32 0, i32 0, i64 0, i64 0, i64 0, i32 0, null, metadata !156, i32 0, i32 0} ; [ DW_TAG_subroutine_type ]
!156 = metadata !{null, metadata !86, metadata !157}
!157 = metadata !{i32 786468, null, metadata !"double", null, i32 0, i64 64, i64 64, i64 0, i32 0, i32 4} ; [ DW_TAG_base_type ]
!158 = metadata !{i32 786478, i32 0, metadata !63, metadata !"ap_int_base", metadata !"ap_int_base", metadata !"", metadata !64, i32 1501, metadata !159, i1 false, i1 false, i32 0, i32 0, null, i32 256, i1 false, null, null, i32 0, metadata !76, i32 1501} ; [ DW_TAG_subprogram ]
!159 = metadata !{i32 786453, i32 0, metadata !"", i32 0, i32 0, i64 0, i64 0, i64 0, i32 0, null, metadata !160, i32 0, i32 0} ; [ DW_TAG_subroutine_type ]
!160 = metadata !{null, metadata !86, metadata !161}
!161 = metadata !{i32 786447, null, metadata !"", null, i32 0, i64 64, i64 64, i64 0, i32 0, metadata !162} ; [ DW_TAG_pointer_type ]
!162 = metadata !{i32 786470, null, metadata !"", null, i32 0, i64 0, i64 0, i64 0, i32 0, metadata !163} ; [ DW_TAG_const_type ]
!163 = metadata !{i32 786468, null, metadata !"char", null, i32 0, i64 8, i64 8, i64 0, i32 0, i32 6} ; [ DW_TAG_base_type ]
!164 = metadata !{i32 786478, i32 0, metadata !63, metadata !"ap_int_base", metadata !"ap_int_base", metadata !"", metadata !64, i32 1508, metadata !165, i1 false, i1 false, i32 0, i32 0, null, i32 256, i1 false, null, null, i32 0, metadata !76, i32 1508} ; [ DW_TAG_subprogram ]
!165 = metadata !{i32 786453, i32 0, metadata !"", i32 0, i32 0, i64 0, i64 0, i64 0, i32 0, null, metadata !166, i32 0, i32 0} ; [ DW_TAG_subroutine_type ]
!166 = metadata !{null, metadata !86, metadata !161, metadata !107}
!167 = metadata !{i32 786478, i32 0, metadata !63, metadata !"read", metadata !"read", metadata !"_ZNV11ap_int_baseILi32ELb0ELb1EE4readEv", metadata !64, i32 1529, metadata !168, i1 false, i1 false, i32 0, i32 0, null, i32 256, i1 false, null, null, i32 0, metadata !76, i32 1529} ; [ DW_TAG_subprogram ]
!168 = metadata !{i32 786453, i32 0, metadata !"", i32 0, i32 0, i64 0, i64 0, i64 0, i32 0, null, metadata !169, i32 0, i32 0} ; [ DW_TAG_subroutine_type ]
!169 = metadata !{metadata !63, metadata !170}
!170 = metadata !{i32 786447, i32 0, metadata !"", i32 0, i32 0, i64 64, i64 64, i64 0, i32 64, metadata !100} ; [ DW_TAG_pointer_type ]
!171 = metadata !{i32 786478, i32 0, metadata !63, metadata !"write", metadata !"write", metadata !"_ZNV11ap_int_baseILi32ELb0ELb1EE5writeERKS0_", metadata !64, i32 1535, metadata !172, i1 false, i1 false, i32 0, i32 0, null, i32 256, i1 false, null, null, i32 0, metadata !76, i32 1535} ; [ DW_TAG_subprogram ]
!172 = metadata !{i32 786453, i32 0, metadata !"", i32 0, i32 0, i64 0, i64 0, i64 0, i32 0, null, metadata !173, i32 0, i32 0} ; [ DW_TAG_subroutine_type ]
!173 = metadata !{null, metadata !170, metadata !90}
!174 = metadata !{i32 786478, i32 0, metadata !63, metadata !"operator=", metadata !"operator=", metadata !"_ZNV11ap_int_baseILi32ELb0ELb1EEaSERVKS0_", metadata !64, i32 1547, metadata !175, i1 false, i1 false, i32 0, i32 0, null, i32 256, i1 false, null, null, i32 0, metadata !76, i32 1547} ; [ DW_TAG_subprogram ]
!175 = metadata !{i32 786453, i32 0, metadata !"", i32 0, i32 0, i64 0, i64 0, i64 0, i32 0, null, metadata !176, i32 0, i32 0} ; [ DW_TAG_subroutine_type ]
!176 = metadata !{null, metadata !170, metadata !98}
!177 = metadata !{i32 786478, i32 0, metadata !63, metadata !"operator=", metadata !"operator=", metadata !"_ZNV11ap_int_baseILi32ELb0ELb1EEaSERKS0_", metadata !64, i32 1556, metadata !172, i1 false, i1 false, i32 0, i32 0, null, i32 256, i1 false, null, null, i32 0, metadata !76, i32 1556} ; [ DW_TAG_subprogram ]
!178 = metadata !{i32 786478, i32 0, metadata !63, metadata !"operator=", metadata !"operator=", metadata !"_ZN11ap_int_baseILi32ELb0ELb1EEaSERVKS0_", metadata !64, i32 1579, metadata !179, i1 false, i1 false, i32 0, i32 0, null, i32 256, i1 false, null, null, i32 0, metadata !76, i32 1579} ; [ DW_TAG_subprogram ]
!179 = metadata !{i32 786453, i32 0, metadata !"", i32 0, i32 0, i64 0, i64 0, i64 0, i32 0, null, metadata !180, i32 0, i32 0} ; [ DW_TAG_subroutine_type ]
!180 = metadata !{metadata !181, metadata !86, metadata !98}
!181 = metadata !{i32 786448, null, null, null, i32 0, i64 0, i64 0, i64 0, i32 0, metadata !63} ; [ DW_TAG_reference_type ]
!182 = metadata !{i32 786478, i32 0, metadata !63, metadata !"operator=", metadata !"operator=", metadata !"_ZN11ap_int_baseILi32ELb0ELb1EEaSERKS0_", metadata !64, i32 1584, metadata !183, i1 false, i1 false, i32 0, i32 0, null, i32 256, i1 false, null, null, i32 0, metadata !76, i32 1584} ; [ DW_TAG_subprogram ]
!183 = metadata !{i32 786453, i32 0, metadata !"", i32 0, i32 0, i64 0, i64 0, i64 0, i32 0, null, metadata !184, i32 0, i32 0} ; [ DW_TAG_subroutine_type ]
!184 = metadata !{metadata !181, metadata !86, metadata !90}
!185 = metadata !{i32 786478, i32 0, metadata !63, metadata !"operator=", metadata !"operator=", metadata !"_ZN11ap_int_baseILi32ELb0ELb1EEaSEPKc", metadata !64, i32 1588, metadata !186, i1 false, i1 false, i32 0, i32 0, null, i32 256, i1 false, null, null, i32 0, metadata !76, i32 1588} ; [ DW_TAG_subprogram ]
!186 = metadata !{i32 786453, i32 0, metadata !"", i32 0, i32 0, i64 0, i64 0, i64 0, i32 0, null, metadata !187, i32 0, i32 0} ; [ DW_TAG_subroutine_type ]
!187 = metadata !{metadata !181, metadata !86, metadata !161}
!188 = metadata !{i32 786478, i32 0, metadata !63, metadata !"set", metadata !"set", metadata !"_ZN11ap_int_baseILi32ELb0ELb1EE3setEPKca", metadata !64, i32 1596, metadata !189, i1 false, i1 false, i32 0, i32 0, null, i32 256, i1 false, null, null, i32 0, metadata !76, i32 1596} ; [ DW_TAG_subprogram ]
!189 = metadata !{i32 786453, i32 0, metadata !"", i32 0, i32 0, i64 0, i64 0, i64 0, i32 0, null, metadata !190, i32 0, i32 0} ; [ DW_TAG_subroutine_type ]
!190 = metadata !{metadata !181, metadata !86, metadata !161, metadata !107}
!191 = metadata !{i32 786478, i32 0, metadata !63, metadata !"operator=", metadata !"operator=", metadata !"_ZN11ap_int_baseILi32ELb0ELb1EEaSEa", metadata !64, i32 1610, metadata !192, i1 false, i1 false, i32 0, i32 0, null, i32 256, i1 false, null, null, i32 0, metadata !76, i32 1610} ; [ DW_TAG_subprogram ]
!192 = metadata !{i32 786453, i32 0, metadata !"", i32 0, i32 0, i64 0, i64 0, i64 0, i32 0, null, metadata !193, i32 0, i32 0} ; [ DW_TAG_subroutine_type ]
!193 = metadata !{metadata !181, metadata !86, metadata !107}
!194 = metadata !{i32 786478, i32 0, metadata !63, metadata !"operator=", metadata !"operator=", metadata !"_ZN11ap_int_baseILi32ELb0ELb1EEaSEh", metadata !64, i32 1611, metadata !195, i1 false, i1 false, i32 0, i32 0, null, i32 256, i1 false, null, null, i32 0, metadata !76, i32 1611} ; [ DW_TAG_subprogram ]
!195 = metadata !{i32 786453, i32 0, metadata !"", i32 0, i32 0, i64 0, i64 0, i64 0, i32 0, null, metadata !196, i32 0, i32 0} ; [ DW_TAG_subroutine_type ]
!196 = metadata !{metadata !181, metadata !86, metadata !111}
!197 = metadata !{i32 786478, i32 0, metadata !63, metadata !"operator=", metadata !"operator=", metadata !"_ZN11ap_int_baseILi32ELb0ELb1EEaSEs", metadata !64, i32 1612, metadata !198, i1 false, i1 false, i32 0, i32 0, null, i32 256, i1 false, null, null, i32 0, metadata !76, i32 1612} ; [ DW_TAG_subprogram ]
!198 = metadata !{i32 786453, i32 0, metadata !"", i32 0, i32 0, i64 0, i64 0, i64 0, i32 0, null, metadata !199, i32 0, i32 0} ; [ DW_TAG_subroutine_type ]
!199 = metadata !{metadata !181, metadata !86, metadata !115}
!200 = metadata !{i32 786478, i32 0, metadata !63, metadata !"operator=", metadata !"operator=", metadata !"_ZN11ap_int_baseILi32ELb0ELb1EEaSEt", metadata !64, i32 1613, metadata !201, i1 false, i1 false, i32 0, i32 0, null, i32 256, i1 false, null, null, i32 0, metadata !76, i32 1613} ; [ DW_TAG_subprogram ]
!201 = metadata !{i32 786453, i32 0, metadata !"", i32 0, i32 0, i64 0, i64 0, i64 0, i32 0, null, metadata !202, i32 0, i32 0} ; [ DW_TAG_subroutine_type ]
!202 = metadata !{metadata !181, metadata !86, metadata !119}
!203 = metadata !{i32 786478, i32 0, metadata !63, metadata !"operator=", metadata !"operator=", metadata !"_ZN11ap_int_baseILi32ELb0ELb1EEaSEi", metadata !64, i32 1614, metadata !204, i1 false, i1 false, i32 0, i32 0, null, i32 256, i1 false, null, null, i32 0, metadata !76, i32 1614} ; [ DW_TAG_subprogram ]
!204 = metadata !{i32 786453, i32 0, metadata !"", i32 0, i32 0, i64 0, i64 0, i64 0, i32 0, null, metadata !205, i32 0, i32 0} ; [ DW_TAG_subroutine_type ]
!205 = metadata !{metadata !181, metadata !86, metadata !80}
!206 = metadata !{i32 786478, i32 0, metadata !63, metadata !"operator=", metadata !"operator=", metadata !"_ZN11ap_int_baseILi32ELb0ELb1EEaSEj", metadata !64, i32 1615, metadata !207, i1 false, i1 false, i32 0, i32 0, null, i32 256, i1 false, null, null, i32 0, metadata !76, i32 1615} ; [ DW_TAG_subprogram ]
!207 = metadata !{i32 786453, i32 0, metadata !"", i32 0, i32 0, i64 0, i64 0, i64 0, i32 0, null, metadata !208, i32 0, i32 0} ; [ DW_TAG_subroutine_type ]
!208 = metadata !{metadata !181, metadata !86, metadata !126}
!209 = metadata !{i32 786478, i32 0, metadata !63, metadata !"operator=", metadata !"operator=", metadata !"_ZN11ap_int_baseILi32ELb0ELb1EEaSEx", metadata !64, i32 1616, metadata !210, i1 false, i1 false, i32 0, i32 0, null, i32 256, i1 false, null, null, i32 0, metadata !76, i32 1616} ; [ DW_TAG_subprogram ]
!210 = metadata !{i32 786453, i32 0, metadata !"", i32 0, i32 0, i64 0, i64 0, i64 0, i32 0, null, metadata !211, i32 0, i32 0} ; [ DW_TAG_subroutine_type ]
!211 = metadata !{metadata !181, metadata !86, metadata !138}
!212 = metadata !{i32 786478, i32 0, metadata !63, metadata !"operator=", metadata !"operator=", metadata !"_ZN11ap_int_baseILi32ELb0ELb1EEaSEy", metadata !64, i32 1617, metadata !213, i1 false, i1 false, i32 0, i32 0, null, i32 256, i1 false, null, null, i32 0, metadata !76, i32 1617} ; [ DW_TAG_subprogram ]
!213 = metadata !{i32 786453, i32 0, metadata !"", i32 0, i32 0, i64 0, i64 0, i64 0, i32 0, null, metadata !214, i32 0, i32 0} ; [ DW_TAG_subroutine_type ]
!214 = metadata !{metadata !181, metadata !86, metadata !143}
!215 = metadata !{i32 786478, i32 0, metadata !63, metadata !"operator unsigned int", metadata !"operator unsigned int", metadata !"_ZNK11ap_int_baseILi32ELb0ELb1EEcvjEv", metadata !64, i32 1655, metadata !216, i1 false, i1 false, i32 0, i32 0, null, i32 256, i1 false, null, null, i32 0, metadata !76, i32 1655} ; [ DW_TAG_subprogram ]
!216 = metadata !{i32 786453, i32 0, metadata !"", i32 0, i32 0, i64 0, i64 0, i64 0, i32 0, null, metadata !217, i32 0, i32 0} ; [ DW_TAG_subroutine_type ]
!217 = metadata !{metadata !218, metadata !224}
!218 = metadata !{i32 786454, metadata !63, metadata !"RetType", metadata !64, i32 1403, i64 0, i64 0, i64 0, i32 0, metadata !219} ; [ DW_TAG_typedef ]
!219 = metadata !{i32 786454, metadata !220, metadata !"Type", metadata !64, i32 1389, i64 0, i64 0, i64 0, i32 0, metadata !126} ; [ DW_TAG_typedef ]
!220 = metadata !{i32 786434, null, metadata !"retval<4, false>", metadata !64, i32 1388, i64 8, i64 8, i32 0, i32 0, null, metadata !221, i32 0, null, metadata !222} ; [ DW_TAG_class_type ]
!221 = metadata !{i32 0}
!222 = metadata !{metadata !223, metadata !81}
!223 = metadata !{i32 786480, null, metadata !"_AP_N", metadata !80, i64 4, null, i32 0, i32 0} ; [ DW_TAG_template_value_parameter ]
!224 = metadata !{i32 786447, i32 0, metadata !"", i32 0, i32 0, i64 64, i64 64, i64 0, i32 64, metadata !91} ; [ DW_TAG_pointer_type ]
!225 = metadata !{i32 786478, i32 0, metadata !63, metadata !"to_bool", metadata !"to_bool", metadata !"_ZNK11ap_int_baseILi32ELb0ELb1EE7to_boolEv", metadata !64, i32 1661, metadata !226, i1 false, i1 false, i32 0, i32 0, null, i32 256, i1 false, null, null, i32 0, metadata !76, i32 1661} ; [ DW_TAG_subprogram ]
!226 = metadata !{i32 786453, i32 0, metadata !"", i32 0, i32 0, i64 0, i64 0, i64 0, i32 0, null, metadata !227, i32 0, i32 0} ; [ DW_TAG_subroutine_type ]
!227 = metadata !{metadata !82, metadata !224}
!228 = metadata !{i32 786478, i32 0, metadata !63, metadata !"to_uchar", metadata !"to_uchar", metadata !"_ZNK11ap_int_baseILi32ELb0ELb1EE8to_ucharEv", metadata !64, i32 1662, metadata !229, i1 false, i1 false, i32 0, i32 0, null, i32 256, i1 false, null, null, i32 0, metadata !76, i32 1662} ; [ DW_TAG_subprogram ]
!229 = metadata !{i32 786453, i32 0, metadata !"", i32 0, i32 0, i64 0, i64 0, i64 0, i32 0, null, metadata !230, i32 0, i32 0} ; [ DW_TAG_subroutine_type ]
!230 = metadata !{metadata !111, metadata !224}
!231 = metadata !{i32 786478, i32 0, metadata !63, metadata !"to_char", metadata !"to_char", metadata !"_ZNK11ap_int_baseILi32ELb0ELb1EE7to_charEv", metadata !64, i32 1663, metadata !232, i1 false, i1 false, i32 0, i32 0, null, i32 256, i1 false, null, null, i32 0, metadata !76, i32 1663} ; [ DW_TAG_subprogram ]
!232 = metadata !{i32 786453, i32 0, metadata !"", i32 0, i32 0, i64 0, i64 0, i64 0, i32 0, null, metadata !233, i32 0, i32 0} ; [ DW_TAG_subroutine_type ]
!233 = metadata !{metadata !107, metadata !224}
!234 = metadata !{i32 786478, i32 0, metadata !63, metadata !"to_ushort", metadata !"to_ushort", metadata !"_ZNK11ap_int_baseILi32ELb0ELb1EE9to_ushortEv", metadata !64, i32 1664, metadata !235, i1 false, i1 false, i32 0, i32 0, null, i32 256, i1 false, null, null, i32 0, metadata !76, i32 1664} ; [ DW_TAG_subprogram ]
!235 = metadata !{i32 786453, i32 0, metadata !"", i32 0, i32 0, i64 0, i64 0, i64 0, i32 0, null, metadata !236, i32 0, i32 0} ; [ DW_TAG_subroutine_type ]
!236 = metadata !{metadata !119, metadata !224}
!237 = metadata !{i32 786478, i32 0, metadata !63, metadata !"to_short", metadata !"to_short", metadata !"_ZNK11ap_int_baseILi32ELb0ELb1EE8to_shortEv", metadata !64, i32 1665, metadata !238, i1 false, i1 false, i32 0, i32 0, null, i32 256, i1 false, null, null, i32 0, metadata !76, i32 1665} ; [ DW_TAG_subprogram ]
!238 = metadata !{i32 786453, i32 0, metadata !"", i32 0, i32 0, i64 0, i64 0, i64 0, i32 0, null, metadata !239, i32 0, i32 0} ; [ DW_TAG_subroutine_type ]
!239 = metadata !{metadata !115, metadata !224}
!240 = metadata !{i32 786478, i32 0, metadata !63, metadata !"to_int", metadata !"to_int", metadata !"_ZNK11ap_int_baseILi32ELb0ELb1EE6to_intEv", metadata !64, i32 1666, metadata !241, i1 false, i1 false, i32 0, i32 0, null, i32 256, i1 false, null, null, i32 0, metadata !76, i32 1666} ; [ DW_TAG_subprogram ]
!241 = metadata !{i32 786453, i32 0, metadata !"", i32 0, i32 0, i64 0, i64 0, i64 0, i32 0, null, metadata !242, i32 0, i32 0} ; [ DW_TAG_subroutine_type ]
!242 = metadata !{metadata !80, metadata !224}
!243 = metadata !{i32 786478, i32 0, metadata !63, metadata !"to_uint", metadata !"to_uint", metadata !"_ZNK11ap_int_baseILi32ELb0ELb1EE7to_uintEv", metadata !64, i32 1667, metadata !244, i1 false, i1 false, i32 0, i32 0, null, i32 256, i1 false, null, null, i32 0, metadata !76, i32 1667} ; [ DW_TAG_subprogram ]
!244 = metadata !{i32 786453, i32 0, metadata !"", i32 0, i32 0, i64 0, i64 0, i64 0, i32 0, null, metadata !245, i32 0, i32 0} ; [ DW_TAG_subroutine_type ]
!245 = metadata !{metadata !126, metadata !224}
!246 = metadata !{i32 786478, i32 0, metadata !63, metadata !"to_long", metadata !"to_long", metadata !"_ZNK11ap_int_baseILi32ELb0ELb1EE7to_longEv", metadata !64, i32 1668, metadata !247, i1 false, i1 false, i32 0, i32 0, null, i32 256, i1 false, null, null, i32 0, metadata !76, i32 1668} ; [ DW_TAG_subprogram ]
!247 = metadata !{i32 786453, i32 0, metadata !"", i32 0, i32 0, i64 0, i64 0, i64 0, i32 0, null, metadata !248, i32 0, i32 0} ; [ DW_TAG_subroutine_type ]
!248 = metadata !{metadata !130, metadata !224}
!249 = metadata !{i32 786478, i32 0, metadata !63, metadata !"to_ulong", metadata !"to_ulong", metadata !"_ZNK11ap_int_baseILi32ELb0ELb1EE8to_ulongEv", metadata !64, i32 1669, metadata !250, i1 false, i1 false, i32 0, i32 0, null, i32 256, i1 false, null, null, i32 0, metadata !76, i32 1669} ; [ DW_TAG_subprogram ]
!250 = metadata !{i32 786453, i32 0, metadata !"", i32 0, i32 0, i64 0, i64 0, i64 0, i32 0, null, metadata !251, i32 0, i32 0} ; [ DW_TAG_subroutine_type ]
!251 = metadata !{metadata !134, metadata !224}
!252 = metadata !{i32 786478, i32 0, metadata !63, metadata !"to_int64", metadata !"to_int64", metadata !"_ZNK11ap_int_baseILi32ELb0ELb1EE8to_int64Ev", metadata !64, i32 1670, metadata !253, i1 false, i1 false, i32 0, i32 0, null, i32 256, i1 false, null, null, i32 0, metadata !76, i32 1670} ; [ DW_TAG_subprogram ]
!253 = metadata !{i32 786453, i32 0, metadata !"", i32 0, i32 0, i64 0, i64 0, i64 0, i32 0, null, metadata !254, i32 0, i32 0} ; [ DW_TAG_subroutine_type ]
!254 = metadata !{metadata !138, metadata !224}
!255 = metadata !{i32 786478, i32 0, metadata !63, metadata !"to_uint64", metadata !"to_uint64", metadata !"_ZNK11ap_int_baseILi32ELb0ELb1EE9to_uint64Ev", metadata !64, i32 1671, metadata !256, i1 false, i1 false, i32 0, i32 0, null, i32 256, i1 false, null, null, i32 0, metadata !76, i32 1671} ; [ DW_TAG_subprogram ]
!256 = metadata !{i32 786453, i32 0, metadata !"", i32 0, i32 0, i64 0, i64 0, i64 0, i32 0, null, metadata !257, i32 0, i32 0} ; [ DW_TAG_subroutine_type ]
!257 = metadata !{metadata !143, metadata !224}
!258 = metadata !{i32 786478, i32 0, metadata !63, metadata !"to_double", metadata !"to_double", metadata !"_ZNK11ap_int_baseILi32ELb0ELb1EE9to_doubleEv", metadata !64, i32 1672, metadata !259, i1 false, i1 false, i32 0, i32 0, null, i32 256, i1 false, null, null, i32 0, metadata !76, i32 1672} ; [ DW_TAG_subprogram ]
!259 = metadata !{i32 786453, i32 0, metadata !"", i32 0, i32 0, i64 0, i64 0, i64 0, i32 0, null, metadata !260, i32 0, i32 0} ; [ DW_TAG_subroutine_type ]
!260 = metadata !{metadata !157, metadata !224}
!261 = metadata !{i32 786478, i32 0, metadata !63, metadata !"length", metadata !"length", metadata !"_ZNK11ap_int_baseILi32ELb0ELb1EE6lengthEv", metadata !64, i32 1686, metadata !241, i1 false, i1 false, i32 0, i32 0, null, i32 256, i1 false, null, null, i32 0, metadata !76, i32 1686} ; [ DW_TAG_subprogram ]
!262 = metadata !{i32 786478, i32 0, metadata !63, metadata !"length", metadata !"length", metadata !"_ZNVK11ap_int_baseILi32ELb0ELb1EE6lengthEv", metadata !64, i32 1687, metadata !263, i1 false, i1 false, i32 0, i32 0, null, i32 256, i1 false, null, null, i32 0, metadata !76, i32 1687} ; [ DW_TAG_subprogram ]
!263 = metadata !{i32 786453, i32 0, metadata !"", i32 0, i32 0, i64 0, i64 0, i64 0, i32 0, null, metadata !264, i32 0, i32 0} ; [ DW_TAG_subroutine_type ]
!264 = metadata !{metadata !80, metadata !265}
!265 = metadata !{i32 786447, i32 0, metadata !"", i32 0, i32 0, i64 64, i64 64, i64 0, i32 64, metadata !99} ; [ DW_TAG_pointer_type ]
!266 = metadata !{i32 786478, i32 0, metadata !63, metadata !"reverse", metadata !"reverse", metadata !"_ZN11ap_int_baseILi32ELb0ELb1EE7reverseEv", metadata !64, i32 1692, metadata !267, i1 false, i1 false, i32 0, i32 0, null, i32 256, i1 false, null, null, i32 0, metadata !76, i32 1692} ; [ DW_TAG_subprogram ]
!267 = metadata !{i32 786453, i32 0, metadata !"", i32 0, i32 0, i64 0, i64 0, i64 0, i32 0, null, metadata !268, i32 0, i32 0} ; [ DW_TAG_subroutine_type ]
!268 = metadata !{metadata !181, metadata !86}
!269 = metadata !{i32 786478, i32 0, metadata !63, metadata !"iszero", metadata !"iszero", metadata !"_ZNK11ap_int_baseILi32ELb0ELb1EE6iszeroEv", metadata !64, i32 1698, metadata !226, i1 false, i1 false, i32 0, i32 0, null, i32 256, i1 false, null, null, i32 0, metadata !76, i32 1698} ; [ DW_TAG_subprogram ]
!270 = metadata !{i32 786478, i32 0, metadata !63, metadata !"is_zero", metadata !"is_zero", metadata !"_ZNK11ap_int_baseILi32ELb0ELb1EE7is_zeroEv", metadata !64, i32 1703, metadata !226, i1 false, i1 false, i32 0, i32 0, null, i32 256, i1 false, null, null, i32 0, metadata !76, i32 1703} ; [ DW_TAG_subprogram ]
!271 = metadata !{i32 786478, i32 0, metadata !63, metadata !"sign", metadata !"sign", metadata !"_ZNK11ap_int_baseILi32ELb0ELb1EE4signEv", metadata !64, i32 1708, metadata !226, i1 false, i1 false, i32 0, i32 0, null, i32 256, i1 false, null, null, i32 0, metadata !76, i32 1708} ; [ DW_TAG_subprogram ]
!272 = metadata !{i32 786478, i32 0, metadata !63, metadata !"clear", metadata !"clear", metadata !"_ZN11ap_int_baseILi32ELb0ELb1EE5clearEi", metadata !64, i32 1716, metadata !121, i1 false, i1 false, i32 0, i32 0, null, i32 256, i1 false, null, null, i32 0, metadata !76, i32 1716} ; [ DW_TAG_subprogram ]
!273 = metadata !{i32 786478, i32 0, metadata !63, metadata !"invert", metadata !"invert", metadata !"_ZN11ap_int_baseILi32ELb0ELb1EE6invertEi", metadata !64, i32 1722, metadata !121, i1 false, i1 false, i32 0, i32 0, null, i32 256, i1 false, null, null, i32 0, metadata !76, i32 1722} ; [ DW_TAG_subprogram ]
!274 = metadata !{i32 786478, i32 0, metadata !63, metadata !"test", metadata !"test", metadata !"_ZNK11ap_int_baseILi32ELb0ELb1EE4testEi", metadata !64, i32 1730, metadata !275, i1 false, i1 false, i32 0, i32 0, null, i32 256, i1 false, null, null, i32 0, metadata !76, i32 1730} ; [ DW_TAG_subprogram ]
!275 = metadata !{i32 786453, i32 0, metadata !"", i32 0, i32 0, i64 0, i64 0, i64 0, i32 0, null, metadata !276, i32 0, i32 0} ; [ DW_TAG_subroutine_type ]
!276 = metadata !{metadata !82, metadata !224, metadata !80}
!277 = metadata !{i32 786478, i32 0, metadata !63, metadata !"set", metadata !"set", metadata !"_ZN11ap_int_baseILi32ELb0ELb1EE3setEi", metadata !64, i32 1736, metadata !121, i1 false, i1 false, i32 0, i32 0, null, i32 256, i1 false, null, null, i32 0, metadata !76, i32 1736} ; [ DW_TAG_subprogram ]
!278 = metadata !{i32 786478, i32 0, metadata !63, metadata !"set", metadata !"set", metadata !"_ZN11ap_int_baseILi32ELb0ELb1EE3setEib", metadata !64, i32 1742, metadata !279, i1 false, i1 false, i32 0, i32 0, null, i32 256, i1 false, null, null, i32 0, metadata !76, i32 1742} ; [ DW_TAG_subprogram ]
!279 = metadata !{i32 786453, i32 0, metadata !"", i32 0, i32 0, i64 0, i64 0, i64 0, i32 0, null, metadata !280, i32 0, i32 0} ; [ DW_TAG_subroutine_type ]
!280 = metadata !{null, metadata !86, metadata !80, metadata !82}
!281 = metadata !{i32 786478, i32 0, metadata !63, metadata !"lrotate", metadata !"lrotate", metadata !"_ZN11ap_int_baseILi32ELb0ELb1EE7lrotateEi", metadata !64, i32 1749, metadata !121, i1 false, i1 false, i32 0, i32 0, null, i32 256, i1 false, null, null, i32 0, metadata !76, i32 1749} ; [ DW_TAG_subprogram ]
!282 = metadata !{i32 786478, i32 0, metadata !63, metadata !"rrotate", metadata !"rrotate", metadata !"_ZN11ap_int_baseILi32ELb0ELb1EE7rrotateEi", metadata !64, i32 1758, metadata !121, i1 false, i1 false, i32 0, i32 0, null, i32 256, i1 false, null, null, i32 0, metadata !76, i32 1758} ; [ DW_TAG_subprogram ]
!283 = metadata !{i32 786478, i32 0, metadata !63, metadata !"set_bit", metadata !"set_bit", metadata !"_ZN11ap_int_baseILi32ELb0ELb1EE7set_bitEib", metadata !64, i32 1766, metadata !279, i1 false, i1 false, i32 0, i32 0, null, i32 256, i1 false, null, null, i32 0, metadata !76, i32 1766} ; [ DW_TAG_subprogram ]
!284 = metadata !{i32 786478, i32 0, metadata !63, metadata !"get_bit", metadata !"get_bit", metadata !"_ZNK11ap_int_baseILi32ELb0ELb1EE7get_bitEi", metadata !64, i32 1771, metadata !275, i1 false, i1 false, i32 0, i32 0, null, i32 256, i1 false, null, null, i32 0, metadata !76, i32 1771} ; [ DW_TAG_subprogram ]
!285 = metadata !{i32 786478, i32 0, metadata !63, metadata !"b_not", metadata !"b_not", metadata !"_ZN11ap_int_baseILi32ELb0ELb1EE5b_notEv", metadata !64, i32 1776, metadata !84, i1 false, i1 false, i32 0, i32 0, null, i32 256, i1 false, null, null, i32 0, metadata !76, i32 1776} ; [ DW_TAG_subprogram ]
!286 = metadata !{i32 786478, i32 0, metadata !63, metadata !"countLeadingZeros", metadata !"countLeadingZeros", metadata !"_ZN11ap_int_baseILi32ELb0ELb1EE17countLeadingZerosEv", metadata !64, i32 1783, metadata !287, i1 false, i1 false, i32 0, i32 0, null, i32 256, i1 false, null, null, i32 0, metadata !76, i32 1783} ; [ DW_TAG_subprogram ]
!287 = metadata !{i32 786453, i32 0, metadata !"", i32 0, i32 0, i64 0, i64 0, i64 0, i32 0, null, metadata !288, i32 0, i32 0} ; [ DW_TAG_subroutine_type ]
!288 = metadata !{metadata !80, metadata !86}
!289 = metadata !{i32 786478, i32 0, metadata !63, metadata !"operator++", metadata !"operator++", metadata !"_ZN11ap_int_baseILi32ELb0ELb1EEppEv", metadata !64, i32 1840, metadata !267, i1 false, i1 false, i32 0, i32 0, null, i32 256, i1 false, null, null, i32 0, metadata !76, i32 1840} ; [ DW_TAG_subprogram ]
!290 = metadata !{i32 786478, i32 0, metadata !63, metadata !"operator--", metadata !"operator--", metadata !"_ZN11ap_int_baseILi32ELb0ELb1EEmmEv", metadata !64, i32 1844, metadata !267, i1 false, i1 false, i32 0, i32 0, null, i32 256, i1 false, null, null, i32 0, metadata !76, i32 1844} ; [ DW_TAG_subprogram ]
!291 = metadata !{i32 786478, i32 0, metadata !63, metadata !"operator++", metadata !"operator++", metadata !"_ZN11ap_int_baseILi32ELb0ELb1EEppEi", metadata !64, i32 1852, metadata !292, i1 false, i1 false, i32 0, i32 0, null, i32 256, i1 false, null, null, i32 0, metadata !76, i32 1852} ; [ DW_TAG_subprogram ]
!292 = metadata !{i32 786453, i32 0, metadata !"", i32 0, i32 0, i64 0, i64 0, i64 0, i32 0, null, metadata !293, i32 0, i32 0} ; [ DW_TAG_subroutine_type ]
!293 = metadata !{metadata !91, metadata !86, metadata !80}
!294 = metadata !{i32 786478, i32 0, metadata !63, metadata !"operator--", metadata !"operator--", metadata !"_ZN11ap_int_baseILi32ELb0ELb1EEmmEi", metadata !64, i32 1857, metadata !292, i1 false, i1 false, i32 0, i32 0, null, i32 256, i1 false, null, null, i32 0, metadata !76, i32 1857} ; [ DW_TAG_subprogram ]
!295 = metadata !{i32 786478, i32 0, metadata !63, metadata !"operator+", metadata !"operator+", metadata !"_ZNK11ap_int_baseILi32ELb0ELb1EEpsEv", metadata !64, i32 1866, metadata !296, i1 false, i1 false, i32 0, i32 0, null, i32 256, i1 false, null, null, i32 0, metadata !76, i32 1866} ; [ DW_TAG_subprogram ]
!296 = metadata !{i32 786453, i32 0, metadata !"", i32 0, i32 0, i64 0, i64 0, i64 0, i32 0, null, metadata !297, i32 0, i32 0} ; [ DW_TAG_subroutine_type ]
!297 = metadata !{metadata !63, metadata !224}
!298 = metadata !{i32 786478, i32 0, metadata !63, metadata !"operator!", metadata !"operator!", metadata !"_ZNK11ap_int_baseILi32ELb0ELb1EEntEv", metadata !64, i32 1872, metadata !226, i1 false, i1 false, i32 0, i32 0, null, i32 256, i1 false, null, null, i32 0, metadata !76, i32 1872} ; [ DW_TAG_subprogram ]
!299 = metadata !{i32 786478, i32 0, metadata !63, metadata !"operator-", metadata !"operator-", metadata !"_ZNK11ap_int_baseILi32ELb0ELb1EEngEv", metadata !64, i32 1877, metadata !300, i1 false, i1 false, i32 0, i32 0, null, i32 256, i1 false, null, null, i32 0, metadata !76, i32 1877} ; [ DW_TAG_subprogram ]
!300 = metadata !{i32 786453, i32 0, metadata !"", i32 0, i32 0, i64 0, i64 0, i64 0, i32 0, null, metadata !301, i32 0, i32 0} ; [ DW_TAG_subroutine_type ]
!301 = metadata !{metadata !302, metadata !224}
!302 = metadata !{i32 786434, null, metadata !"ap_int_base<33, true, true>", metadata !64, i32 1398, i64 64, i64 64, i32 0, i32 0, null, metadata !303, i32 0, null, metadata !598} ; [ DW_TAG_class_type ]
!303 = metadata !{metadata !304, metadata !316, metadata !320, metadata !328, metadata !334, metadata !337, metadata !340, metadata !343, metadata !346, metadata !349, metadata !352, metadata !355, metadata !358, metadata !361, metadata !364, metadata !367, metadata !370, metadata !373, metadata !376, metadata !379, metadata !382, metadata !386, metadata !389, metadata !392, metadata !393, metadata !397, metadata !400, metadata !403, metadata !406, metadata !409, metadata !412, metadata !415, metadata !418, metadata !421, metadata !424, metadata !427, metadata !430, metadata !439, metadata !442, metadata !445, metadata !448, metadata !451, metadata !454, metadata !457, metadata !460, metadata !463, metadata !466, metadata !469, metadata !472, metadata !475, metadata !476, metadata !480, metadata !483, metadata !484, metadata !485, metadata !486, metadata !487, metadata !488, metadata !491, metadata !492, metadata !495, metadata !496, metadata !497, metadata !498, metadata !499, metadata !500, metadata !503, metadata !504, metadata !505, metadata !508, metadata !509, metadata !512, metadata !513, metadata !517, metadata !521, metadata !522, metadata !525, metadata !526, metadata !565, metadata !566, metadata !567, metadata !568, metadata !571, metadata !572, metadata !573, metadata !574, metadata !575, metadata !576, metadata !577, metadata !578, metadata !579, metadata !580, metadata !581, metadata !582, metadata !592, metadata !595}
!304 = metadata !{i32 786460, metadata !302, null, metadata !64, i32 0, i64 0, i64 0, i64 0, i32 0, metadata !305} ; [ DW_TAG_inheritance ]
!305 = metadata !{i32 786434, null, metadata !"ssdm_int<33 + 1024 * 0, true>", metadata !68, i32 35, i64 64, i64 64, i32 0, i32 0, null, metadata !306, i32 0, null, metadata !313} ; [ DW_TAG_class_type ]
!306 = metadata !{metadata !307, metadata !309}
!307 = metadata !{i32 786445, metadata !305, metadata !"V", metadata !68, i32 35, i64 33, i64 64, i64 0, i32 0, metadata !308} ; [ DW_TAG_member ]
!308 = metadata !{i32 786468, null, metadata !"int33", null, i32 0, i64 33, i64 64, i64 0, i32 0, i32 5} ; [ DW_TAG_base_type ]
!309 = metadata !{i32 786478, i32 0, metadata !305, metadata !"ssdm_int", metadata !"ssdm_int", metadata !"", metadata !68, i32 35, metadata !310, i1 false, i1 false, i32 0, i32 0, null, i32 256, i1 false, null, null, i32 0, metadata !76, i32 35} ; [ DW_TAG_subprogram ]
!310 = metadata !{i32 786453, i32 0, metadata !"", i32 0, i32 0, i64 0, i64 0, i64 0, i32 0, null, metadata !311, i32 0, i32 0} ; [ DW_TAG_subroutine_type ]
!311 = metadata !{null, metadata !312}
!312 = metadata !{i32 786447, i32 0, metadata !"", i32 0, i32 0, i64 64, i64 64, i64 0, i32 64, metadata !305} ; [ DW_TAG_pointer_type ]
!313 = metadata !{metadata !314, metadata !315}
!314 = metadata !{i32 786480, null, metadata !"_AP_N", metadata !80, i64 33, null, i32 0, i32 0} ; [ DW_TAG_template_value_parameter ]
!315 = metadata !{i32 786480, null, metadata !"_AP_S", metadata !82, i64 1, null, i32 0, i32 0} ; [ DW_TAG_template_value_parameter ]
!316 = metadata !{i32 786478, i32 0, metadata !302, metadata !"ap_int_base", metadata !"ap_int_base", metadata !"", metadata !64, i32 1439, metadata !317, i1 false, i1 false, i32 0, i32 0, null, i32 256, i1 false, null, null, i32 0, metadata !76, i32 1439} ; [ DW_TAG_subprogram ]
!317 = metadata !{i32 786453, i32 0, metadata !"", i32 0, i32 0, i64 0, i64 0, i64 0, i32 0, null, metadata !318, i32 0, i32 0} ; [ DW_TAG_subroutine_type ]
!318 = metadata !{null, metadata !319}
!319 = metadata !{i32 786447, i32 0, metadata !"", i32 0, i32 0, i64 64, i64 64, i64 0, i32 64, metadata !302} ; [ DW_TAG_pointer_type ]
!320 = metadata !{i32 786478, i32 0, metadata !302, metadata !"ap_int_base<33, true>", metadata !"ap_int_base<33, true>", metadata !"", metadata !64, i32 1451, metadata !321, i1 false, i1 false, i32 0, i32 0, null, i32 256, i1 false, null, metadata !325, i32 0, metadata !76, i32 1451} ; [ DW_TAG_subprogram ]
!321 = metadata !{i32 786453, i32 0, metadata !"", i32 0, i32 0, i64 0, i64 0, i64 0, i32 0, null, metadata !322, i32 0, i32 0} ; [ DW_TAG_subroutine_type ]
!322 = metadata !{null, metadata !319, metadata !323}
!323 = metadata !{i32 786448, null, null, null, i32 0, i64 0, i64 0, i64 0, i32 0, metadata !324} ; [ DW_TAG_reference_type ]
!324 = metadata !{i32 786470, null, metadata !"", null, i32 0, i64 0, i64 0, i64 0, i32 0, metadata !302} ; [ DW_TAG_const_type ]
!325 = metadata !{metadata !326, metadata !327}
!326 = metadata !{i32 786480, null, metadata !"_AP_W2", metadata !80, i64 33, null, i32 0, i32 0} ; [ DW_TAG_template_value_parameter ]
!327 = metadata !{i32 786480, null, metadata !"_AP_S2", metadata !82, i64 1, null, i32 0, i32 0} ; [ DW_TAG_template_value_parameter ]
!328 = metadata !{i32 786478, i32 0, metadata !302, metadata !"ap_int_base<33, true>", metadata !"ap_int_base<33, true>", metadata !"", metadata !64, i32 1454, metadata !329, i1 false, i1 false, i32 0, i32 0, null, i32 256, i1 false, null, metadata !325, i32 0, metadata !76, i32 1454} ; [ DW_TAG_subprogram ]
!329 = metadata !{i32 786453, i32 0, metadata !"", i32 0, i32 0, i64 0, i64 0, i64 0, i32 0, null, metadata !330, i32 0, i32 0} ; [ DW_TAG_subroutine_type ]
!330 = metadata !{null, metadata !319, metadata !331}
!331 = metadata !{i32 786448, null, null, null, i32 0, i64 0, i64 0, i64 0, i32 0, metadata !332} ; [ DW_TAG_reference_type ]
!332 = metadata !{i32 786470, null, metadata !"", null, i32 0, i64 0, i64 0, i64 0, i32 0, metadata !333} ; [ DW_TAG_const_type ]
!333 = metadata !{i32 786485, null, metadata !"", null, i32 0, i64 0, i64 0, i64 0, i32 0, metadata !302} ; [ DW_TAG_volatile_type ]
!334 = metadata !{i32 786478, i32 0, metadata !302, metadata !"ap_int_base", metadata !"ap_int_base", metadata !"", metadata !64, i32 1461, metadata !335, i1 false, i1 false, i32 0, i32 0, null, i32 384, i1 false, null, null, i32 0, metadata !76, i32 1461} ; [ DW_TAG_subprogram ]
!335 = metadata !{i32 786453, i32 0, metadata !"", i32 0, i32 0, i64 0, i64 0, i64 0, i32 0, null, metadata !336, i32 0, i32 0} ; [ DW_TAG_subroutine_type ]
!336 = metadata !{null, metadata !319, metadata !82}
!337 = metadata !{i32 786478, i32 0, metadata !302, metadata !"ap_int_base", metadata !"ap_int_base", metadata !"", metadata !64, i32 1462, metadata !338, i1 false, i1 false, i32 0, i32 0, null, i32 384, i1 false, null, null, i32 0, metadata !76, i32 1462} ; [ DW_TAG_subprogram ]
!338 = metadata !{i32 786453, i32 0, metadata !"", i32 0, i32 0, i64 0, i64 0, i64 0, i32 0, null, metadata !339, i32 0, i32 0} ; [ DW_TAG_subroutine_type ]
!339 = metadata !{null, metadata !319, metadata !107}
!340 = metadata !{i32 786478, i32 0, metadata !302, metadata !"ap_int_base", metadata !"ap_int_base", metadata !"", metadata !64, i32 1463, metadata !341, i1 false, i1 false, i32 0, i32 0, null, i32 384, i1 false, null, null, i32 0, metadata !76, i32 1463} ; [ DW_TAG_subprogram ]
!341 = metadata !{i32 786453, i32 0, metadata !"", i32 0, i32 0, i64 0, i64 0, i64 0, i32 0, null, metadata !342, i32 0, i32 0} ; [ DW_TAG_subroutine_type ]
!342 = metadata !{null, metadata !319, metadata !111}
!343 = metadata !{i32 786478, i32 0, metadata !302, metadata !"ap_int_base", metadata !"ap_int_base", metadata !"", metadata !64, i32 1464, metadata !344, i1 false, i1 false, i32 0, i32 0, null, i32 384, i1 false, null, null, i32 0, metadata !76, i32 1464} ; [ DW_TAG_subprogram ]
!344 = metadata !{i32 786453, i32 0, metadata !"", i32 0, i32 0, i64 0, i64 0, i64 0, i32 0, null, metadata !345, i32 0, i32 0} ; [ DW_TAG_subroutine_type ]
!345 = metadata !{null, metadata !319, metadata !115}
!346 = metadata !{i32 786478, i32 0, metadata !302, metadata !"ap_int_base", metadata !"ap_int_base", metadata !"", metadata !64, i32 1465, metadata !347, i1 false, i1 false, i32 0, i32 0, null, i32 384, i1 false, null, null, i32 0, metadata !76, i32 1465} ; [ DW_TAG_subprogram ]
!347 = metadata !{i32 786453, i32 0, metadata !"", i32 0, i32 0, i64 0, i64 0, i64 0, i32 0, null, metadata !348, i32 0, i32 0} ; [ DW_TAG_subroutine_type ]
!348 = metadata !{null, metadata !319, metadata !119}
!349 = metadata !{i32 786478, i32 0, metadata !302, metadata !"ap_int_base", metadata !"ap_int_base", metadata !"", metadata !64, i32 1466, metadata !350, i1 false, i1 false, i32 0, i32 0, null, i32 384, i1 false, null, null, i32 0, metadata !76, i32 1466} ; [ DW_TAG_subprogram ]
!350 = metadata !{i32 786453, i32 0, metadata !"", i32 0, i32 0, i64 0, i64 0, i64 0, i32 0, null, metadata !351, i32 0, i32 0} ; [ DW_TAG_subroutine_type ]
!351 = metadata !{null, metadata !319, metadata !80}
!352 = metadata !{i32 786478, i32 0, metadata !302, metadata !"ap_int_base", metadata !"ap_int_base", metadata !"", metadata !64, i32 1467, metadata !353, i1 false, i1 false, i32 0, i32 0, null, i32 384, i1 false, null, null, i32 0, metadata !76, i32 1467} ; [ DW_TAG_subprogram ]
!353 = metadata !{i32 786453, i32 0, metadata !"", i32 0, i32 0, i64 0, i64 0, i64 0, i32 0, null, metadata !354, i32 0, i32 0} ; [ DW_TAG_subroutine_type ]
!354 = metadata !{null, metadata !319, metadata !126}
!355 = metadata !{i32 786478, i32 0, metadata !302, metadata !"ap_int_base", metadata !"ap_int_base", metadata !"", metadata !64, i32 1468, metadata !356, i1 false, i1 false, i32 0, i32 0, null, i32 384, i1 false, null, null, i32 0, metadata !76, i32 1468} ; [ DW_TAG_subprogram ]
!356 = metadata !{i32 786453, i32 0, metadata !"", i32 0, i32 0, i64 0, i64 0, i64 0, i32 0, null, metadata !357, i32 0, i32 0} ; [ DW_TAG_subroutine_type ]
!357 = metadata !{null, metadata !319, metadata !130}
!358 = metadata !{i32 786478, i32 0, metadata !302, metadata !"ap_int_base", metadata !"ap_int_base", metadata !"", metadata !64, i32 1469, metadata !359, i1 false, i1 false, i32 0, i32 0, null, i32 384, i1 false, null, null, i32 0, metadata !76, i32 1469} ; [ DW_TAG_subprogram ]
!359 = metadata !{i32 786453, i32 0, metadata !"", i32 0, i32 0, i64 0, i64 0, i64 0, i32 0, null, metadata !360, i32 0, i32 0} ; [ DW_TAG_subroutine_type ]
!360 = metadata !{null, metadata !319, metadata !134}
!361 = metadata !{i32 786478, i32 0, metadata !302, metadata !"ap_int_base", metadata !"ap_int_base", metadata !"", metadata !64, i32 1470, metadata !362, i1 false, i1 false, i32 0, i32 0, null, i32 384, i1 false, null, null, i32 0, metadata !76, i32 1470} ; [ DW_TAG_subprogram ]
!362 = metadata !{i32 786453, i32 0, metadata !"", i32 0, i32 0, i64 0, i64 0, i64 0, i32 0, null, metadata !363, i32 0, i32 0} ; [ DW_TAG_subroutine_type ]
!363 = metadata !{null, metadata !319, metadata !138}
!364 = metadata !{i32 786478, i32 0, metadata !302, metadata !"ap_int_base", metadata !"ap_int_base", metadata !"", metadata !64, i32 1471, metadata !365, i1 false, i1 false, i32 0, i32 0, null, i32 384, i1 false, null, null, i32 0, metadata !76, i32 1471} ; [ DW_TAG_subprogram ]
!365 = metadata !{i32 786453, i32 0, metadata !"", i32 0, i32 0, i64 0, i64 0, i64 0, i32 0, null, metadata !366, i32 0, i32 0} ; [ DW_TAG_subroutine_type ]
!366 = metadata !{null, metadata !319, metadata !143}
!367 = metadata !{i32 786478, i32 0, metadata !302, metadata !"ap_int_base", metadata !"ap_int_base", metadata !"", metadata !64, i32 1472, metadata !368, i1 false, i1 false, i32 0, i32 0, null, i32 384, i1 false, null, null, i32 0, metadata !76, i32 1472} ; [ DW_TAG_subprogram ]
!368 = metadata !{i32 786453, i32 0, metadata !"", i32 0, i32 0, i64 0, i64 0, i64 0, i32 0, null, metadata !369, i32 0, i32 0} ; [ DW_TAG_subroutine_type ]
!369 = metadata !{null, metadata !319, metadata !148}
!370 = metadata !{i32 786478, i32 0, metadata !302, metadata !"ap_int_base", metadata !"ap_int_base", metadata !"", metadata !64, i32 1473, metadata !371, i1 false, i1 false, i32 0, i32 0, null, i32 384, i1 false, null, null, i32 0, metadata !76, i32 1473} ; [ DW_TAG_subprogram ]
!371 = metadata !{i32 786453, i32 0, metadata !"", i32 0, i32 0, i64 0, i64 0, i64 0, i32 0, null, metadata !372, i32 0, i32 0} ; [ DW_TAG_subroutine_type ]
!372 = metadata !{null, metadata !319, metadata !153}
!373 = metadata !{i32 786478, i32 0, metadata !302, metadata !"ap_int_base", metadata !"ap_int_base", metadata !"", metadata !64, i32 1474, metadata !374, i1 false, i1 false, i32 0, i32 0, null, i32 384, i1 false, null, null, i32 0, metadata !76, i32 1474} ; [ DW_TAG_subprogram ]
!374 = metadata !{i32 786453, i32 0, metadata !"", i32 0, i32 0, i64 0, i64 0, i64 0, i32 0, null, metadata !375, i32 0, i32 0} ; [ DW_TAG_subroutine_type ]
!375 = metadata !{null, metadata !319, metadata !157}
!376 = metadata !{i32 786478, i32 0, metadata !302, metadata !"ap_int_base", metadata !"ap_int_base", metadata !"", metadata !64, i32 1501, metadata !377, i1 false, i1 false, i32 0, i32 0, null, i32 256, i1 false, null, null, i32 0, metadata !76, i32 1501} ; [ DW_TAG_subprogram ]
!377 = metadata !{i32 786453, i32 0, metadata !"", i32 0, i32 0, i64 0, i64 0, i64 0, i32 0, null, metadata !378, i32 0, i32 0} ; [ DW_TAG_subroutine_type ]
!378 = metadata !{null, metadata !319, metadata !161}
!379 = metadata !{i32 786478, i32 0, metadata !302, metadata !"ap_int_base", metadata !"ap_int_base", metadata !"", metadata !64, i32 1508, metadata !380, i1 false, i1 false, i32 0, i32 0, null, i32 256, i1 false, null, null, i32 0, metadata !76, i32 1508} ; [ DW_TAG_subprogram ]
!380 = metadata !{i32 786453, i32 0, metadata !"", i32 0, i32 0, i64 0, i64 0, i64 0, i32 0, null, metadata !381, i32 0, i32 0} ; [ DW_TAG_subroutine_type ]
!381 = metadata !{null, metadata !319, metadata !161, metadata !107}
!382 = metadata !{i32 786478, i32 0, metadata !302, metadata !"read", metadata !"read", metadata !"_ZNV11ap_int_baseILi33ELb1ELb1EE4readEv", metadata !64, i32 1529, metadata !383, i1 false, i1 false, i32 0, i32 0, null, i32 256, i1 false, null, null, i32 0, metadata !76, i32 1529} ; [ DW_TAG_subprogram ]
!383 = metadata !{i32 786453, i32 0, metadata !"", i32 0, i32 0, i64 0, i64 0, i64 0, i32 0, null, metadata !384, i32 0, i32 0} ; [ DW_TAG_subroutine_type ]
!384 = metadata !{metadata !302, metadata !385}
!385 = metadata !{i32 786447, i32 0, metadata !"", i32 0, i32 0, i64 64, i64 64, i64 0, i32 64, metadata !333} ; [ DW_TAG_pointer_type ]
!386 = metadata !{i32 786478, i32 0, metadata !302, metadata !"write", metadata !"write", metadata !"_ZNV11ap_int_baseILi33ELb1ELb1EE5writeERKS0_", metadata !64, i32 1535, metadata !387, i1 false, i1 false, i32 0, i32 0, null, i32 256, i1 false, null, null, i32 0, metadata !76, i32 1535} ; [ DW_TAG_subprogram ]
!387 = metadata !{i32 786453, i32 0, metadata !"", i32 0, i32 0, i64 0, i64 0, i64 0, i32 0, null, metadata !388, i32 0, i32 0} ; [ DW_TAG_subroutine_type ]
!388 = metadata !{null, metadata !385, metadata !323}
!389 = metadata !{i32 786478, i32 0, metadata !302, metadata !"operator=", metadata !"operator=", metadata !"_ZNV11ap_int_baseILi33ELb1ELb1EEaSERVKS0_", metadata !64, i32 1547, metadata !390, i1 false, i1 false, i32 0, i32 0, null, i32 256, i1 false, null, null, i32 0, metadata !76, i32 1547} ; [ DW_TAG_subprogram ]
!390 = metadata !{i32 786453, i32 0, metadata !"", i32 0, i32 0, i64 0, i64 0, i64 0, i32 0, null, metadata !391, i32 0, i32 0} ; [ DW_TAG_subroutine_type ]
!391 = metadata !{null, metadata !385, metadata !331}
!392 = metadata !{i32 786478, i32 0, metadata !302, metadata !"operator=", metadata !"operator=", metadata !"_ZNV11ap_int_baseILi33ELb1ELb1EEaSERKS0_", metadata !64, i32 1556, metadata !387, i1 false, i1 false, i32 0, i32 0, null, i32 256, i1 false, null, null, i32 0, metadata !76, i32 1556} ; [ DW_TAG_subprogram ]
!393 = metadata !{i32 786478, i32 0, metadata !302, metadata !"operator=", metadata !"operator=", metadata !"_ZN11ap_int_baseILi33ELb1ELb1EEaSERVKS0_", metadata !64, i32 1579, metadata !394, i1 false, i1 false, i32 0, i32 0, null, i32 256, i1 false, null, null, i32 0, metadata !76, i32 1579} ; [ DW_TAG_subprogram ]
!394 = metadata !{i32 786453, i32 0, metadata !"", i32 0, i32 0, i64 0, i64 0, i64 0, i32 0, null, metadata !395, i32 0, i32 0} ; [ DW_TAG_subroutine_type ]
!395 = metadata !{metadata !396, metadata !319, metadata !331}
!396 = metadata !{i32 786448, null, null, null, i32 0, i64 0, i64 0, i64 0, i32 0, metadata !302} ; [ DW_TAG_reference_type ]
!397 = metadata !{i32 786478, i32 0, metadata !302, metadata !"operator=", metadata !"operator=", metadata !"_ZN11ap_int_baseILi33ELb1ELb1EEaSERKS0_", metadata !64, i32 1584, metadata !398, i1 false, i1 false, i32 0, i32 0, null, i32 256, i1 false, null, null, i32 0, metadata !76, i32 1584} ; [ DW_TAG_subprogram ]
!398 = metadata !{i32 786453, i32 0, metadata !"", i32 0, i32 0, i64 0, i64 0, i64 0, i32 0, null, metadata !399, i32 0, i32 0} ; [ DW_TAG_subroutine_type ]
!399 = metadata !{metadata !396, metadata !319, metadata !323}
!400 = metadata !{i32 786478, i32 0, metadata !302, metadata !"operator=", metadata !"operator=", metadata !"_ZN11ap_int_baseILi33ELb1ELb1EEaSEPKc", metadata !64, i32 1588, metadata !401, i1 false, i1 false, i32 0, i32 0, null, i32 256, i1 false, null, null, i32 0, metadata !76, i32 1588} ; [ DW_TAG_subprogram ]
!401 = metadata !{i32 786453, i32 0, metadata !"", i32 0, i32 0, i64 0, i64 0, i64 0, i32 0, null, metadata !402, i32 0, i32 0} ; [ DW_TAG_subroutine_type ]
!402 = metadata !{metadata !396, metadata !319, metadata !161}
!403 = metadata !{i32 786478, i32 0, metadata !302, metadata !"set", metadata !"set", metadata !"_ZN11ap_int_baseILi33ELb1ELb1EE3setEPKca", metadata !64, i32 1596, metadata !404, i1 false, i1 false, i32 0, i32 0, null, i32 256, i1 false, null, null, i32 0, metadata !76, i32 1596} ; [ DW_TAG_subprogram ]
!404 = metadata !{i32 786453, i32 0, metadata !"", i32 0, i32 0, i64 0, i64 0, i64 0, i32 0, null, metadata !405, i32 0, i32 0} ; [ DW_TAG_subroutine_type ]
!405 = metadata !{metadata !396, metadata !319, metadata !161, metadata !107}
!406 = metadata !{i32 786478, i32 0, metadata !302, metadata !"operator=", metadata !"operator=", metadata !"_ZN11ap_int_baseILi33ELb1ELb1EEaSEa", metadata !64, i32 1610, metadata !407, i1 false, i1 false, i32 0, i32 0, null, i32 256, i1 false, null, null, i32 0, metadata !76, i32 1610} ; [ DW_TAG_subprogram ]
!407 = metadata !{i32 786453, i32 0, metadata !"", i32 0, i32 0, i64 0, i64 0, i64 0, i32 0, null, metadata !408, i32 0, i32 0} ; [ DW_TAG_subroutine_type ]
!408 = metadata !{metadata !396, metadata !319, metadata !107}
!409 = metadata !{i32 786478, i32 0, metadata !302, metadata !"operator=", metadata !"operator=", metadata !"_ZN11ap_int_baseILi33ELb1ELb1EEaSEh", metadata !64, i32 1611, metadata !410, i1 false, i1 false, i32 0, i32 0, null, i32 256, i1 false, null, null, i32 0, metadata !76, i32 1611} ; [ DW_TAG_subprogram ]
!410 = metadata !{i32 786453, i32 0, metadata !"", i32 0, i32 0, i64 0, i64 0, i64 0, i32 0, null, metadata !411, i32 0, i32 0} ; [ DW_TAG_subroutine_type ]
!411 = metadata !{metadata !396, metadata !319, metadata !111}
!412 = metadata !{i32 786478, i32 0, metadata !302, metadata !"operator=", metadata !"operator=", metadata !"_ZN11ap_int_baseILi33ELb1ELb1EEaSEs", metadata !64, i32 1612, metadata !413, i1 false, i1 false, i32 0, i32 0, null, i32 256, i1 false, null, null, i32 0, metadata !76, i32 1612} ; [ DW_TAG_subprogram ]
!413 = metadata !{i32 786453, i32 0, metadata !"", i32 0, i32 0, i64 0, i64 0, i64 0, i32 0, null, metadata !414, i32 0, i32 0} ; [ DW_TAG_subroutine_type ]
!414 = metadata !{metadata !396, metadata !319, metadata !115}
!415 = metadata !{i32 786478, i32 0, metadata !302, metadata !"operator=", metadata !"operator=", metadata !"_ZN11ap_int_baseILi33ELb1ELb1EEaSEt", metadata !64, i32 1613, metadata !416, i1 false, i1 false, i32 0, i32 0, null, i32 256, i1 false, null, null, i32 0, metadata !76, i32 1613} ; [ DW_TAG_subprogram ]
!416 = metadata !{i32 786453, i32 0, metadata !"", i32 0, i32 0, i64 0, i64 0, i64 0, i32 0, null, metadata !417, i32 0, i32 0} ; [ DW_TAG_subroutine_type ]
!417 = metadata !{metadata !396, metadata !319, metadata !119}
!418 = metadata !{i32 786478, i32 0, metadata !302, metadata !"operator=", metadata !"operator=", metadata !"_ZN11ap_int_baseILi33ELb1ELb1EEaSEi", metadata !64, i32 1614, metadata !419, i1 false, i1 false, i32 0, i32 0, null, i32 256, i1 false, null, null, i32 0, metadata !76, i32 1614} ; [ DW_TAG_subprogram ]
!419 = metadata !{i32 786453, i32 0, metadata !"", i32 0, i32 0, i64 0, i64 0, i64 0, i32 0, null, metadata !420, i32 0, i32 0} ; [ DW_TAG_subroutine_type ]
!420 = metadata !{metadata !396, metadata !319, metadata !80}
!421 = metadata !{i32 786478, i32 0, metadata !302, metadata !"operator=", metadata !"operator=", metadata !"_ZN11ap_int_baseILi33ELb1ELb1EEaSEj", metadata !64, i32 1615, metadata !422, i1 false, i1 false, i32 0, i32 0, null, i32 256, i1 false, null, null, i32 0, metadata !76, i32 1615} ; [ DW_TAG_subprogram ]
!422 = metadata !{i32 786453, i32 0, metadata !"", i32 0, i32 0, i64 0, i64 0, i64 0, i32 0, null, metadata !423, i32 0, i32 0} ; [ DW_TAG_subroutine_type ]
!423 = metadata !{metadata !396, metadata !319, metadata !126}
!424 = metadata !{i32 786478, i32 0, metadata !302, metadata !"operator=", metadata !"operator=", metadata !"_ZN11ap_int_baseILi33ELb1ELb1EEaSEx", metadata !64, i32 1616, metadata !425, i1 false, i1 false, i32 0, i32 0, null, i32 256, i1 false, null, null, i32 0, metadata !76, i32 1616} ; [ DW_TAG_subprogram ]
!425 = metadata !{i32 786453, i32 0, metadata !"", i32 0, i32 0, i64 0, i64 0, i64 0, i32 0, null, metadata !426, i32 0, i32 0} ; [ DW_TAG_subroutine_type ]
!426 = metadata !{metadata !396, metadata !319, metadata !138}
!427 = metadata !{i32 786478, i32 0, metadata !302, metadata !"operator=", metadata !"operator=", metadata !"_ZN11ap_int_baseILi33ELb1ELb1EEaSEy", metadata !64, i32 1617, metadata !428, i1 false, i1 false, i32 0, i32 0, null, i32 256, i1 false, null, null, i32 0, metadata !76, i32 1617} ; [ DW_TAG_subprogram ]
!428 = metadata !{i32 786453, i32 0, metadata !"", i32 0, i32 0, i64 0, i64 0, i64 0, i32 0, null, metadata !429, i32 0, i32 0} ; [ DW_TAG_subroutine_type ]
!429 = metadata !{metadata !396, metadata !319, metadata !143}
!430 = metadata !{i32 786478, i32 0, metadata !302, metadata !"operator long long", metadata !"operator long long", metadata !"_ZNK11ap_int_baseILi33ELb1ELb1EEcvxEv", metadata !64, i32 1655, metadata !431, i1 false, i1 false, i32 0, i32 0, null, i32 256, i1 false, null, null, i32 0, metadata !76, i32 1655} ; [ DW_TAG_subprogram ]
!431 = metadata !{i32 786453, i32 0, metadata !"", i32 0, i32 0, i64 0, i64 0, i64 0, i32 0, null, metadata !432, i32 0, i32 0} ; [ DW_TAG_subroutine_type ]
!432 = metadata !{metadata !433, metadata !438}
!433 = metadata !{i32 786454, metadata !302, metadata !"RetType", metadata !64, i32 1403, i64 0, i64 0, i64 0, i32 0, metadata !434} ; [ DW_TAG_typedef ]
!434 = metadata !{i32 786454, metadata !435, metadata !"Type", metadata !64, i32 1360, i64 0, i64 0, i64 0, i32 0, metadata !138} ; [ DW_TAG_typedef ]
!435 = metadata !{i32 786434, null, metadata !"retval<5, true>", metadata !64, i32 1359, i64 8, i64 8, i32 0, i32 0, null, metadata !221, i32 0, null, metadata !436} ; [ DW_TAG_class_type ]
!436 = metadata !{metadata !437, metadata !315}
!437 = metadata !{i32 786480, null, metadata !"_AP_N", metadata !80, i64 5, null, i32 0, i32 0} ; [ DW_TAG_template_value_parameter ]
!438 = metadata !{i32 786447, i32 0, metadata !"", i32 0, i32 0, i64 64, i64 64, i64 0, i32 64, metadata !324} ; [ DW_TAG_pointer_type ]
!439 = metadata !{i32 786478, i32 0, metadata !302, metadata !"to_bool", metadata !"to_bool", metadata !"_ZNK11ap_int_baseILi33ELb1ELb1EE7to_boolEv", metadata !64, i32 1661, metadata !440, i1 false, i1 false, i32 0, i32 0, null, i32 256, i1 false, null, null, i32 0, metadata !76, i32 1661} ; [ DW_TAG_subprogram ]
!440 = metadata !{i32 786453, i32 0, metadata !"", i32 0, i32 0, i64 0, i64 0, i64 0, i32 0, null, metadata !441, i32 0, i32 0} ; [ DW_TAG_subroutine_type ]
!441 = metadata !{metadata !82, metadata !438}
!442 = metadata !{i32 786478, i32 0, metadata !302, metadata !"to_uchar", metadata !"to_uchar", metadata !"_ZNK11ap_int_baseILi33ELb1ELb1EE8to_ucharEv", metadata !64, i32 1662, metadata !443, i1 false, i1 false, i32 0, i32 0, null, i32 256, i1 false, null, null, i32 0, metadata !76, i32 1662} ; [ DW_TAG_subprogram ]
!443 = metadata !{i32 786453, i32 0, metadata !"", i32 0, i32 0, i64 0, i64 0, i64 0, i32 0, null, metadata !444, i32 0, i32 0} ; [ DW_TAG_subroutine_type ]
!444 = metadata !{metadata !111, metadata !438}
!445 = metadata !{i32 786478, i32 0, metadata !302, metadata !"to_char", metadata !"to_char", metadata !"_ZNK11ap_int_baseILi33ELb1ELb1EE7to_charEv", metadata !64, i32 1663, metadata !446, i1 false, i1 false, i32 0, i32 0, null, i32 256, i1 false, null, null, i32 0, metadata !76, i32 1663} ; [ DW_TAG_subprogram ]
!446 = metadata !{i32 786453, i32 0, metadata !"", i32 0, i32 0, i64 0, i64 0, i64 0, i32 0, null, metadata !447, i32 0, i32 0} ; [ DW_TAG_subroutine_type ]
!447 = metadata !{metadata !107, metadata !438}
!448 = metadata !{i32 786478, i32 0, metadata !302, metadata !"to_ushort", metadata !"to_ushort", metadata !"_ZNK11ap_int_baseILi33ELb1ELb1EE9to_ushortEv", metadata !64, i32 1664, metadata !449, i1 false, i1 false, i32 0, i32 0, null, i32 256, i1 false, null, null, i32 0, metadata !76, i32 1664} ; [ DW_TAG_subprogram ]
!449 = metadata !{i32 786453, i32 0, metadata !"", i32 0, i32 0, i64 0, i64 0, i64 0, i32 0, null, metadata !450, i32 0, i32 0} ; [ DW_TAG_subroutine_type ]
!450 = metadata !{metadata !119, metadata !438}
!451 = metadata !{i32 786478, i32 0, metadata !302, metadata !"to_short", metadata !"to_short", metadata !"_ZNK11ap_int_baseILi33ELb1ELb1EE8to_shortEv", metadata !64, i32 1665, metadata !452, i1 false, i1 false, i32 0, i32 0, null, i32 256, i1 false, null, null, i32 0, metadata !76, i32 1665} ; [ DW_TAG_subprogram ]
!452 = metadata !{i32 786453, i32 0, metadata !"", i32 0, i32 0, i64 0, i64 0, i64 0, i32 0, null, metadata !453, i32 0, i32 0} ; [ DW_TAG_subroutine_type ]
!453 = metadata !{metadata !115, metadata !438}
!454 = metadata !{i32 786478, i32 0, metadata !302, metadata !"to_int", metadata !"to_int", metadata !"_ZNK11ap_int_baseILi33ELb1ELb1EE6to_intEv", metadata !64, i32 1666, metadata !455, i1 false, i1 false, i32 0, i32 0, null, i32 256, i1 false, null, null, i32 0, metadata !76, i32 1666} ; [ DW_TAG_subprogram ]
!455 = metadata !{i32 786453, i32 0, metadata !"", i32 0, i32 0, i64 0, i64 0, i64 0, i32 0, null, metadata !456, i32 0, i32 0} ; [ DW_TAG_subroutine_type ]
!456 = metadata !{metadata !80, metadata !438}
!457 = metadata !{i32 786478, i32 0, metadata !302, metadata !"to_uint", metadata !"to_uint", metadata !"_ZNK11ap_int_baseILi33ELb1ELb1EE7to_uintEv", metadata !64, i32 1667, metadata !458, i1 false, i1 false, i32 0, i32 0, null, i32 256, i1 false, null, null, i32 0, metadata !76, i32 1667} ; [ DW_TAG_subprogram ]
!458 = metadata !{i32 786453, i32 0, metadata !"", i32 0, i32 0, i64 0, i64 0, i64 0, i32 0, null, metadata !459, i32 0, i32 0} ; [ DW_TAG_subroutine_type ]
!459 = metadata !{metadata !126, metadata !438}
!460 = metadata !{i32 786478, i32 0, metadata !302, metadata !"to_long", metadata !"to_long", metadata !"_ZNK11ap_int_baseILi33ELb1ELb1EE7to_longEv", metadata !64, i32 1668, metadata !461, i1 false, i1 false, i32 0, i32 0, null, i32 256, i1 false, null, null, i32 0, metadata !76, i32 1668} ; [ DW_TAG_subprogram ]
!461 = metadata !{i32 786453, i32 0, metadata !"", i32 0, i32 0, i64 0, i64 0, i64 0, i32 0, null, metadata !462, i32 0, i32 0} ; [ DW_TAG_subroutine_type ]
!462 = metadata !{metadata !130, metadata !438}
!463 = metadata !{i32 786478, i32 0, metadata !302, metadata !"to_ulong", metadata !"to_ulong", metadata !"_ZNK11ap_int_baseILi33ELb1ELb1EE8to_ulongEv", metadata !64, i32 1669, metadata !464, i1 false, i1 false, i32 0, i32 0, null, i32 256, i1 false, null, null, i32 0, metadata !76, i32 1669} ; [ DW_TAG_subprogram ]
!464 = metadata !{i32 786453, i32 0, metadata !"", i32 0, i32 0, i64 0, i64 0, i64 0, i32 0, null, metadata !465, i32 0, i32 0} ; [ DW_TAG_subroutine_type ]
!465 = metadata !{metadata !134, metadata !438}
!466 = metadata !{i32 786478, i32 0, metadata !302, metadata !"to_int64", metadata !"to_int64", metadata !"_ZNK11ap_int_baseILi33ELb1ELb1EE8to_int64Ev", metadata !64, i32 1670, metadata !467, i1 false, i1 false, i32 0, i32 0, null, i32 256, i1 false, null, null, i32 0, metadata !76, i32 1670} ; [ DW_TAG_subprogram ]
!467 = metadata !{i32 786453, i32 0, metadata !"", i32 0, i32 0, i64 0, i64 0, i64 0, i32 0, null, metadata !468, i32 0, i32 0} ; [ DW_TAG_subroutine_type ]
!468 = metadata !{metadata !138, metadata !438}
!469 = metadata !{i32 786478, i32 0, metadata !302, metadata !"to_uint64", metadata !"to_uint64", metadata !"_ZNK11ap_int_baseILi33ELb1ELb1EE9to_uint64Ev", metadata !64, i32 1671, metadata !470, i1 false, i1 false, i32 0, i32 0, null, i32 256, i1 false, null, null, i32 0, metadata !76, i32 1671} ; [ DW_TAG_subprogram ]
!470 = metadata !{i32 786453, i32 0, metadata !"", i32 0, i32 0, i64 0, i64 0, i64 0, i32 0, null, metadata !471, i32 0, i32 0} ; [ DW_TAG_subroutine_type ]
!471 = metadata !{metadata !143, metadata !438}
!472 = metadata !{i32 786478, i32 0, metadata !302, metadata !"to_double", metadata !"to_double", metadata !"_ZNK11ap_int_baseILi33ELb1ELb1EE9to_doubleEv", metadata !64, i32 1672, metadata !473, i1 false, i1 false, i32 0, i32 0, null, i32 256, i1 false, null, null, i32 0, metadata !76, i32 1672} ; [ DW_TAG_subprogram ]
!473 = metadata !{i32 786453, i32 0, metadata !"", i32 0, i32 0, i64 0, i64 0, i64 0, i32 0, null, metadata !474, i32 0, i32 0} ; [ DW_TAG_subroutine_type ]
!474 = metadata !{metadata !157, metadata !438}
!475 = metadata !{i32 786478, i32 0, metadata !302, metadata !"length", metadata !"length", metadata !"_ZNK11ap_int_baseILi33ELb1ELb1EE6lengthEv", metadata !64, i32 1686, metadata !455, i1 false, i1 false, i32 0, i32 0, null, i32 256, i1 false, null, null, i32 0, metadata !76, i32 1686} ; [ DW_TAG_subprogram ]
!476 = metadata !{i32 786478, i32 0, metadata !302, metadata !"length", metadata !"length", metadata !"_ZNVK11ap_int_baseILi33ELb1ELb1EE6lengthEv", metadata !64, i32 1687, metadata !477, i1 false, i1 false, i32 0, i32 0, null, i32 256, i1 false, null, null, i32 0, metadata !76, i32 1687} ; [ DW_TAG_subprogram ]
!477 = metadata !{i32 786453, i32 0, metadata !"", i32 0, i32 0, i64 0, i64 0, i64 0, i32 0, null, metadata !478, i32 0, i32 0} ; [ DW_TAG_subroutine_type ]
!478 = metadata !{metadata !80, metadata !479}
!479 = metadata !{i32 786447, i32 0, metadata !"", i32 0, i32 0, i64 64, i64 64, i64 0, i32 64, metadata !332} ; [ DW_TAG_pointer_type ]
!480 = metadata !{i32 786478, i32 0, metadata !302, metadata !"reverse", metadata !"reverse", metadata !"_ZN11ap_int_baseILi33ELb1ELb1EE7reverseEv", metadata !64, i32 1692, metadata !481, i1 false, i1 false, i32 0, i32 0, null, i32 256, i1 false, null, null, i32 0, metadata !76, i32 1692} ; [ DW_TAG_subprogram ]
!481 = metadata !{i32 786453, i32 0, metadata !"", i32 0, i32 0, i64 0, i64 0, i64 0, i32 0, null, metadata !482, i32 0, i32 0} ; [ DW_TAG_subroutine_type ]
!482 = metadata !{metadata !396, metadata !319}
!483 = metadata !{i32 786478, i32 0, metadata !302, metadata !"iszero", metadata !"iszero", metadata !"_ZNK11ap_int_baseILi33ELb1ELb1EE6iszeroEv", metadata !64, i32 1698, metadata !440, i1 false, i1 false, i32 0, i32 0, null, i32 256, i1 false, null, null, i32 0, metadata !76, i32 1698} ; [ DW_TAG_subprogram ]
!484 = metadata !{i32 786478, i32 0, metadata !302, metadata !"is_zero", metadata !"is_zero", metadata !"_ZNK11ap_int_baseILi33ELb1ELb1EE7is_zeroEv", metadata !64, i32 1703, metadata !440, i1 false, i1 false, i32 0, i32 0, null, i32 256, i1 false, null, null, i32 0, metadata !76, i32 1703} ; [ DW_TAG_subprogram ]
!485 = metadata !{i32 786478, i32 0, metadata !302, metadata !"sign", metadata !"sign", metadata !"_ZNK11ap_int_baseILi33ELb1ELb1EE4signEv", metadata !64, i32 1708, metadata !440, i1 false, i1 false, i32 0, i32 0, null, i32 256, i1 false, null, null, i32 0, metadata !76, i32 1708} ; [ DW_TAG_subprogram ]
!486 = metadata !{i32 786478, i32 0, metadata !302, metadata !"clear", metadata !"clear", metadata !"_ZN11ap_int_baseILi33ELb1ELb1EE5clearEi", metadata !64, i32 1716, metadata !350, i1 false, i1 false, i32 0, i32 0, null, i32 256, i1 false, null, null, i32 0, metadata !76, i32 1716} ; [ DW_TAG_subprogram ]
!487 = metadata !{i32 786478, i32 0, metadata !302, metadata !"invert", metadata !"invert", metadata !"_ZN11ap_int_baseILi33ELb1ELb1EE6invertEi", metadata !64, i32 1722, metadata !350, i1 false, i1 false, i32 0, i32 0, null, i32 256, i1 false, null, null, i32 0, metadata !76, i32 1722} ; [ DW_TAG_subprogram ]
!488 = metadata !{i32 786478, i32 0, metadata !302, metadata !"test", metadata !"test", metadata !"_ZNK11ap_int_baseILi33ELb1ELb1EE4testEi", metadata !64, i32 1730, metadata !489, i1 false, i1 false, i32 0, i32 0, null, i32 256, i1 false, null, null, i32 0, metadata !76, i32 1730} ; [ DW_TAG_subprogram ]
!489 = metadata !{i32 786453, i32 0, metadata !"", i32 0, i32 0, i64 0, i64 0, i64 0, i32 0, null, metadata !490, i32 0, i32 0} ; [ DW_TAG_subroutine_type ]
!490 = metadata !{metadata !82, metadata !438, metadata !80}
!491 = metadata !{i32 786478, i32 0, metadata !302, metadata !"set", metadata !"set", metadata !"_ZN11ap_int_baseILi33ELb1ELb1EE3setEi", metadata !64, i32 1736, metadata !350, i1 false, i1 false, i32 0, i32 0, null, i32 256, i1 false, null, null, i32 0, metadata !76, i32 1736} ; [ DW_TAG_subprogram ]
!492 = metadata !{i32 786478, i32 0, metadata !302, metadata !"set", metadata !"set", metadata !"_ZN11ap_int_baseILi33ELb1ELb1EE3setEib", metadata !64, i32 1742, metadata !493, i1 false, i1 false, i32 0, i32 0, null, i32 256, i1 false, null, null, i32 0, metadata !76, i32 1742} ; [ DW_TAG_subprogram ]
!493 = metadata !{i32 786453, i32 0, metadata !"", i32 0, i32 0, i64 0, i64 0, i64 0, i32 0, null, metadata !494, i32 0, i32 0} ; [ DW_TAG_subroutine_type ]
!494 = metadata !{null, metadata !319, metadata !80, metadata !82}
!495 = metadata !{i32 786478, i32 0, metadata !302, metadata !"lrotate", metadata !"lrotate", metadata !"_ZN11ap_int_baseILi33ELb1ELb1EE7lrotateEi", metadata !64, i32 1749, metadata !350, i1 false, i1 false, i32 0, i32 0, null, i32 256, i1 false, null, null, i32 0, metadata !76, i32 1749} ; [ DW_TAG_subprogram ]
!496 = metadata !{i32 786478, i32 0, metadata !302, metadata !"rrotate", metadata !"rrotate", metadata !"_ZN11ap_int_baseILi33ELb1ELb1EE7rrotateEi", metadata !64, i32 1758, metadata !350, i1 false, i1 false, i32 0, i32 0, null, i32 256, i1 false, null, null, i32 0, metadata !76, i32 1758} ; [ DW_TAG_subprogram ]
!497 = metadata !{i32 786478, i32 0, metadata !302, metadata !"set_bit", metadata !"set_bit", metadata !"_ZN11ap_int_baseILi33ELb1ELb1EE7set_bitEib", metadata !64, i32 1766, metadata !493, i1 false, i1 false, i32 0, i32 0, null, i32 256, i1 false, null, null, i32 0, metadata !76, i32 1766} ; [ DW_TAG_subprogram ]
!498 = metadata !{i32 786478, i32 0, metadata !302, metadata !"get_bit", metadata !"get_bit", metadata !"_ZNK11ap_int_baseILi33ELb1ELb1EE7get_bitEi", metadata !64, i32 1771, metadata !489, i1 false, i1 false, i32 0, i32 0, null, i32 256, i1 false, null, null, i32 0, metadata !76, i32 1771} ; [ DW_TAG_subprogram ]
!499 = metadata !{i32 786478, i32 0, metadata !302, metadata !"b_not", metadata !"b_not", metadata !"_ZN11ap_int_baseILi33ELb1ELb1EE5b_notEv", metadata !64, i32 1776, metadata !317, i1 false, i1 false, i32 0, i32 0, null, i32 256, i1 false, null, null, i32 0, metadata !76, i32 1776} ; [ DW_TAG_subprogram ]
!500 = metadata !{i32 786478, i32 0, metadata !302, metadata !"countLeadingZeros", metadata !"countLeadingZeros", metadata !"_ZN11ap_int_baseILi33ELb1ELb1EE17countLeadingZerosEv", metadata !64, i32 1783, metadata !501, i1 false, i1 false, i32 0, i32 0, null, i32 256, i1 false, null, null, i32 0, metadata !76, i32 1783} ; [ DW_TAG_subprogram ]
!501 = metadata !{i32 786453, i32 0, metadata !"", i32 0, i32 0, i64 0, i64 0, i64 0, i32 0, null, metadata !502, i32 0, i32 0} ; [ DW_TAG_subroutine_type ]
!502 = metadata !{metadata !80, metadata !319}
!503 = metadata !{i32 786478, i32 0, metadata !302, metadata !"operator++", metadata !"operator++", metadata !"_ZN11ap_int_baseILi33ELb1ELb1EEppEv", metadata !64, i32 1840, metadata !481, i1 false, i1 false, i32 0, i32 0, null, i32 256, i1 false, null, null, i32 0, metadata !76, i32 1840} ; [ DW_TAG_subprogram ]
!504 = metadata !{i32 786478, i32 0, metadata !302, metadata !"operator--", metadata !"operator--", metadata !"_ZN11ap_int_baseILi33ELb1ELb1EEmmEv", metadata !64, i32 1844, metadata !481, i1 false, i1 false, i32 0, i32 0, null, i32 256, i1 false, null, null, i32 0, metadata !76, i32 1844} ; [ DW_TAG_subprogram ]
!505 = metadata !{i32 786478, i32 0, metadata !302, metadata !"operator++", metadata !"operator++", metadata !"_ZN11ap_int_baseILi33ELb1ELb1EEppEi", metadata !64, i32 1852, metadata !506, i1 false, i1 false, i32 0, i32 0, null, i32 256, i1 false, null, null, i32 0, metadata !76, i32 1852} ; [ DW_TAG_subprogram ]
!506 = metadata !{i32 786453, i32 0, metadata !"", i32 0, i32 0, i64 0, i64 0, i64 0, i32 0, null, metadata !507, i32 0, i32 0} ; [ DW_TAG_subroutine_type ]
!507 = metadata !{metadata !324, metadata !319, metadata !80}
!508 = metadata !{i32 786478, i32 0, metadata !302, metadata !"operator--", metadata !"operator--", metadata !"_ZN11ap_int_baseILi33ELb1ELb1EEmmEi", metadata !64, i32 1857, metadata !506, i1 false, i1 false, i32 0, i32 0, null, i32 256, i1 false, null, null, i32 0, metadata !76, i32 1857} ; [ DW_TAG_subprogram ]
!509 = metadata !{i32 786478, i32 0, metadata !302, metadata !"operator+", metadata !"operator+", metadata !"_ZNK11ap_int_baseILi33ELb1ELb1EEpsEv", metadata !64, i32 1866, metadata !510, i1 false, i1 false, i32 0, i32 0, null, i32 256, i1 false, null, null, i32 0, metadata !76, i32 1866} ; [ DW_TAG_subprogram ]
!510 = metadata !{i32 786453, i32 0, metadata !"", i32 0, i32 0, i64 0, i64 0, i64 0, i32 0, null, metadata !511, i32 0, i32 0} ; [ DW_TAG_subroutine_type ]
!511 = metadata !{metadata !302, metadata !438}
!512 = metadata !{i32 786478, i32 0, metadata !302, metadata !"operator!", metadata !"operator!", metadata !"_ZNK11ap_int_baseILi33ELb1ELb1EEntEv", metadata !64, i32 1872, metadata !440, i1 false, i1 false, i32 0, i32 0, null, i32 256, i1 false, null, null, i32 0, metadata !76, i32 1872} ; [ DW_TAG_subprogram ]
!513 = metadata !{i32 786478, i32 0, metadata !302, metadata !"operator-", metadata !"operator-", metadata !"_ZNK11ap_int_baseILi33ELb1ELb1EEngEv", metadata !64, i32 1877, metadata !514, i1 false, i1 false, i32 0, i32 0, null, i32 256, i1 false, null, null, i32 0, metadata !76, i32 1877} ; [ DW_TAG_subprogram ]
!514 = metadata !{i32 786453, i32 0, metadata !"", i32 0, i32 0, i64 0, i64 0, i64 0, i32 0, null, metadata !515, i32 0, i32 0} ; [ DW_TAG_subroutine_type ]
!515 = metadata !{metadata !516, metadata !438}
!516 = metadata !{i32 786434, null, metadata !"ap_int_base<34, true, true>", metadata !64, i32 651, i32 0, i32 0, i32 0, i32 4, null, null, i32 0} ; [ DW_TAG_class_type ]
!517 = metadata !{i32 786478, i32 0, metadata !302, metadata !"range", metadata !"range", metadata !"_ZN11ap_int_baseILi33ELb1ELb1EE5rangeEii", metadata !64, i32 2007, metadata !518, i1 false, i1 false, i32 0, i32 0, null, i32 256, i1 false, null, null, i32 0, metadata !76, i32 2007} ; [ DW_TAG_subprogram ]
!518 = metadata !{i32 786453, i32 0, metadata !"", i32 0, i32 0, i64 0, i64 0, i64 0, i32 0, null, metadata !519, i32 0, i32 0} ; [ DW_TAG_subroutine_type ]
!519 = metadata !{metadata !520, metadata !319, metadata !80, metadata !80}
!520 = metadata !{i32 786434, null, metadata !"ap_range_ref<33, true>", metadata !64, i32 924, i32 0, i32 0, i32 0, i32 4, null, null, i32 0} ; [ DW_TAG_class_type ]
!521 = metadata !{i32 786478, i32 0, metadata !302, metadata !"operator()", metadata !"operator()", metadata !"_ZN11ap_int_baseILi33ELb1ELb1EEclEii", metadata !64, i32 2013, metadata !518, i1 false, i1 false, i32 0, i32 0, null, i32 256, i1 false, null, null, i32 0, metadata !76, i32 2013} ; [ DW_TAG_subprogram ]
!522 = metadata !{i32 786478, i32 0, metadata !302, metadata !"range", metadata !"range", metadata !"_ZNK11ap_int_baseILi33ELb1ELb1EE5rangeEii", metadata !64, i32 2019, metadata !523, i1 false, i1 false, i32 0, i32 0, null, i32 256, i1 false, null, null, i32 0, metadata !76, i32 2019} ; [ DW_TAG_subprogram ]
!523 = metadata !{i32 786453, i32 0, metadata !"", i32 0, i32 0, i64 0, i64 0, i64 0, i32 0, null, metadata !524, i32 0, i32 0} ; [ DW_TAG_subroutine_type ]
!524 = metadata !{metadata !520, metadata !438, metadata !80, metadata !80}
!525 = metadata !{i32 786478, i32 0, metadata !302, metadata !"operator()", metadata !"operator()", metadata !"_ZNK11ap_int_baseILi33ELb1ELb1EEclEii", metadata !64, i32 2025, metadata !523, i1 false, i1 false, i32 0, i32 0, null, i32 256, i1 false, null, null, i32 0, metadata !76, i32 2025} ; [ DW_TAG_subprogram ]
!526 = metadata !{i32 786478, i32 0, metadata !302, metadata !"operator[]", metadata !"operator[]", metadata !"_ZN11ap_int_baseILi33ELb1ELb1EEixEi", metadata !64, i32 2044, metadata !527, i1 false, i1 false, i32 0, i32 0, null, i32 256, i1 false, null, null, i32 0, metadata !76, i32 2044} ; [ DW_TAG_subprogram ]
!527 = metadata !{i32 786453, i32 0, metadata !"", i32 0, i32 0, i64 0, i64 0, i64 0, i32 0, null, metadata !528, i32 0, i32 0} ; [ DW_TAG_subroutine_type ]
!528 = metadata !{metadata !529, metadata !319, metadata !80}
!529 = metadata !{i32 786434, null, metadata !"ap_bit_ref<33, true>", metadata !64, i32 1194, i64 128, i64 64, i32 0, i32 0, null, metadata !530, i32 0, null, metadata !563} ; [ DW_TAG_class_type ]
!530 = metadata !{metadata !531, metadata !532, metadata !533, metadata !539, metadata !543, metadata !547, metadata !548, metadata !552, metadata !555, metadata !556, metadata !559, metadata !560}
!531 = metadata !{i32 786445, metadata !529, metadata !"d_bv", metadata !64, i32 1195, i64 64, i64 64, i64 0, i32 0, metadata !396} ; [ DW_TAG_member ]
!532 = metadata !{i32 786445, metadata !529, metadata !"d_index", metadata !64, i32 1196, i64 32, i64 32, i64 64, i32 0, metadata !80} ; [ DW_TAG_member ]
!533 = metadata !{i32 786478, i32 0, metadata !529, metadata !"ap_bit_ref", metadata !"ap_bit_ref", metadata !"", metadata !64, i32 1199, metadata !534, i1 false, i1 false, i32 0, i32 0, null, i32 256, i1 false, null, null, i32 0, metadata !76, i32 1199} ; [ DW_TAG_subprogram ]
!534 = metadata !{i32 786453, i32 0, metadata !"", i32 0, i32 0, i64 0, i64 0, i64 0, i32 0, null, metadata !535, i32 0, i32 0} ; [ DW_TAG_subroutine_type ]
!535 = metadata !{null, metadata !536, metadata !537}
!536 = metadata !{i32 786447, i32 0, metadata !"", i32 0, i32 0, i64 64, i64 64, i64 0, i32 64, metadata !529} ; [ DW_TAG_pointer_type ]
!537 = metadata !{i32 786448, null, null, null, i32 0, i64 0, i64 0, i64 0, i32 0, metadata !538} ; [ DW_TAG_reference_type ]
!538 = metadata !{i32 786470, null, metadata !"", null, i32 0, i64 0, i64 0, i64 0, i32 0, metadata !529} ; [ DW_TAG_const_type ]
!539 = metadata !{i32 786478, i32 0, metadata !529, metadata !"ap_bit_ref", metadata !"ap_bit_ref", metadata !"", metadata !64, i32 1202, metadata !540, i1 false, i1 false, i32 0, i32 0, null, i32 256, i1 false, null, null, i32 0, metadata !76, i32 1202} ; [ DW_TAG_subprogram ]
!540 = metadata !{i32 786453, i32 0, metadata !"", i32 0, i32 0, i64 0, i64 0, i64 0, i32 0, null, metadata !541, i32 0, i32 0} ; [ DW_TAG_subroutine_type ]
!541 = metadata !{null, metadata !536, metadata !542, metadata !80}
!542 = metadata !{i32 786447, null, metadata !"", null, i32 0, i64 64, i64 64, i64 0, i32 0, metadata !302} ; [ DW_TAG_pointer_type ]
!543 = metadata !{i32 786478, i32 0, metadata !529, metadata !"operator _Bool", metadata !"operator _Bool", metadata !"_ZNK10ap_bit_refILi33ELb1EEcvbEv", metadata !64, i32 1204, metadata !544, i1 false, i1 false, i32 0, i32 0, null, i32 256, i1 false, null, null, i32 0, metadata !76, i32 1204} ; [ DW_TAG_subprogram ]
!544 = metadata !{i32 786453, i32 0, metadata !"", i32 0, i32 0, i64 0, i64 0, i64 0, i32 0, null, metadata !545, i32 0, i32 0} ; [ DW_TAG_subroutine_type ]
!545 = metadata !{metadata !82, metadata !546}
!546 = metadata !{i32 786447, i32 0, metadata !"", i32 0, i32 0, i64 64, i64 64, i64 0, i32 64, metadata !538} ; [ DW_TAG_pointer_type ]
!547 = metadata !{i32 786478, i32 0, metadata !529, metadata !"to_bool", metadata !"to_bool", metadata !"_ZNK10ap_bit_refILi33ELb1EE7to_boolEv", metadata !64, i32 1205, metadata !544, i1 false, i1 false, i32 0, i32 0, null, i32 256, i1 false, null, null, i32 0, metadata !76, i32 1205} ; [ DW_TAG_subprogram ]
!548 = metadata !{i32 786478, i32 0, metadata !529, metadata !"operator=", metadata !"operator=", metadata !"_ZN10ap_bit_refILi33ELb1EEaSEy", metadata !64, i32 1207, metadata !549, i1 false, i1 false, i32 0, i32 0, null, i32 256, i1 false, null, null, i32 0, metadata !76, i32 1207} ; [ DW_TAG_subprogram ]
!549 = metadata !{i32 786453, i32 0, metadata !"", i32 0, i32 0, i64 0, i64 0, i64 0, i32 0, null, metadata !550, i32 0, i32 0} ; [ DW_TAG_subroutine_type ]
!550 = metadata !{metadata !551, metadata !536, metadata !144}
!551 = metadata !{i32 786448, null, null, null, i32 0, i64 0, i64 0, i64 0, i32 0, metadata !529} ; [ DW_TAG_reference_type ]
!552 = metadata !{i32 786478, i32 0, metadata !529, metadata !"operator=", metadata !"operator=", metadata !"_ZN10ap_bit_refILi33ELb1EEaSERKS0_", metadata !64, i32 1227, metadata !553, i1 false, i1 false, i32 0, i32 0, null, i32 256, i1 false, null, null, i32 0, metadata !76, i32 1227} ; [ DW_TAG_subprogram ]
!553 = metadata !{i32 786453, i32 0, metadata !"", i32 0, i32 0, i64 0, i64 0, i64 0, i32 0, null, metadata !554, i32 0, i32 0} ; [ DW_TAG_subroutine_type ]
!554 = metadata !{metadata !551, metadata !536, metadata !537}
!555 = metadata !{i32 786478, i32 0, metadata !529, metadata !"get", metadata !"get", metadata !"_ZNK10ap_bit_refILi33ELb1EE3getEv", metadata !64, i32 1335, metadata !544, i1 false, i1 false, i32 0, i32 0, null, i32 256, i1 false, null, null, i32 0, metadata !76, i32 1335} ; [ DW_TAG_subprogram ]
!556 = metadata !{i32 786478, i32 0, metadata !529, metadata !"get", metadata !"get", metadata !"_ZN10ap_bit_refILi33ELb1EE3getEv", metadata !64, i32 1339, metadata !557, i1 false, i1 false, i32 0, i32 0, null, i32 256, i1 false, null, null, i32 0, metadata !76, i32 1339} ; [ DW_TAG_subprogram ]
!557 = metadata !{i32 786453, i32 0, metadata !"", i32 0, i32 0, i64 0, i64 0, i64 0, i32 0, null, metadata !558, i32 0, i32 0} ; [ DW_TAG_subroutine_type ]
!558 = metadata !{metadata !82, metadata !536}
!559 = metadata !{i32 786478, i32 0, metadata !529, metadata !"operator~", metadata !"operator~", metadata !"_ZNK10ap_bit_refILi33ELb1EEcoEv", metadata !64, i32 1348, metadata !544, i1 false, i1 false, i32 0, i32 0, null, i32 256, i1 false, null, null, i32 0, metadata !76, i32 1348} ; [ DW_TAG_subprogram ]
!560 = metadata !{i32 786478, i32 0, metadata !529, metadata !"length", metadata !"length", metadata !"_ZNK10ap_bit_refILi33ELb1EE6lengthEv", metadata !64, i32 1353, metadata !561, i1 false, i1 false, i32 0, i32 0, null, i32 256, i1 false, null, null, i32 0, metadata !76, i32 1353} ; [ DW_TAG_subprogram ]
!561 = metadata !{i32 786453, i32 0, metadata !"", i32 0, i32 0, i64 0, i64 0, i64 0, i32 0, null, metadata !562, i32 0, i32 0} ; [ DW_TAG_subroutine_type ]
!562 = metadata !{metadata !80, metadata !546}
!563 = metadata !{metadata !564, metadata !315}
!564 = metadata !{i32 786480, null, metadata !"_AP_W", metadata !80, i64 33, null, i32 0, i32 0} ; [ DW_TAG_template_value_parameter ]
!565 = metadata !{i32 786478, i32 0, metadata !302, metadata !"operator[]", metadata !"operator[]", metadata !"_ZNK11ap_int_baseILi33ELb1ELb1EEixEi", metadata !64, i32 2058, metadata !489, i1 false, i1 false, i32 0, i32 0, null, i32 256, i1 false, null, null, i32 0, metadata !76, i32 2058} ; [ DW_TAG_subprogram ]
!566 = metadata !{i32 786478, i32 0, metadata !302, metadata !"bit", metadata !"bit", metadata !"_ZN11ap_int_baseILi33ELb1ELb1EE3bitEi", metadata !64, i32 2072, metadata !527, i1 false, i1 false, i32 0, i32 0, null, i32 256, i1 false, null, null, i32 0, metadata !76, i32 2072} ; [ DW_TAG_subprogram ]
!567 = metadata !{i32 786478, i32 0, metadata !302, metadata !"bit", metadata !"bit", metadata !"_ZNK11ap_int_baseILi33ELb1ELb1EE3bitEi", metadata !64, i32 2086, metadata !489, i1 false, i1 false, i32 0, i32 0, null, i32 256, i1 false, null, null, i32 0, metadata !76, i32 2086} ; [ DW_TAG_subprogram ]
!568 = metadata !{i32 786478, i32 0, metadata !302, metadata !"and_reduce", metadata !"and_reduce", metadata !"_ZN11ap_int_baseILi33ELb1ELb1EE10and_reduceEv", metadata !64, i32 2266, metadata !569, i1 false, i1 false, i32 0, i32 0, null, i32 256, i1 false, null, null, i32 0, metadata !76, i32 2266} ; [ DW_TAG_subprogram ]
!569 = metadata !{i32 786453, i32 0, metadata !"", i32 0, i32 0, i64 0, i64 0, i64 0, i32 0, null, metadata !570, i32 0, i32 0} ; [ DW_TAG_subroutine_type ]
!570 = metadata !{metadata !82, metadata !319}
!571 = metadata !{i32 786478, i32 0, metadata !302, metadata !"nand_reduce", metadata !"nand_reduce", metadata !"_ZN11ap_int_baseILi33ELb1ELb1EE11nand_reduceEv", metadata !64, i32 2269, metadata !569, i1 false, i1 false, i32 0, i32 0, null, i32 256, i1 false, null, null, i32 0, metadata !76, i32 2269} ; [ DW_TAG_subprogram ]
!572 = metadata !{i32 786478, i32 0, metadata !302, metadata !"or_reduce", metadata !"or_reduce", metadata !"_ZN11ap_int_baseILi33ELb1ELb1EE9or_reduceEv", metadata !64, i32 2272, metadata !569, i1 false, i1 false, i32 0, i32 0, null, i32 256, i1 false, null, null, i32 0, metadata !76, i32 2272} ; [ DW_TAG_subprogram ]
!573 = metadata !{i32 786478, i32 0, metadata !302, metadata !"nor_reduce", metadata !"nor_reduce", metadata !"_ZN11ap_int_baseILi33ELb1ELb1EE10nor_reduceEv", metadata !64, i32 2275, metadata !569, i1 false, i1 false, i32 0, i32 0, null, i32 256, i1 false, null, null, i32 0, metadata !76, i32 2275} ; [ DW_TAG_subprogram ]
!574 = metadata !{i32 786478, i32 0, metadata !302, metadata !"xor_reduce", metadata !"xor_reduce", metadata !"_ZN11ap_int_baseILi33ELb1ELb1EE10xor_reduceEv", metadata !64, i32 2278, metadata !569, i1 false, i1 false, i32 0, i32 0, null, i32 256, i1 false, null, null, i32 0, metadata !76, i32 2278} ; [ DW_TAG_subprogram ]
!575 = metadata !{i32 786478, i32 0, metadata !302, metadata !"xnor_reduce", metadata !"xnor_reduce", metadata !"_ZN11ap_int_baseILi33ELb1ELb1EE11xnor_reduceEv", metadata !64, i32 2281, metadata !569, i1 false, i1 false, i32 0, i32 0, null, i32 256, i1 false, null, null, i32 0, metadata !76, i32 2281} ; [ DW_TAG_subprogram ]
!576 = metadata !{i32 786478, i32 0, metadata !302, metadata !"and_reduce", metadata !"and_reduce", metadata !"_ZNK11ap_int_baseILi33ELb1ELb1EE10and_reduceEv", metadata !64, i32 2285, metadata !440, i1 false, i1 false, i32 0, i32 0, null, i32 256, i1 false, null, null, i32 0, metadata !76, i32 2285} ; [ DW_TAG_subprogram ]
!577 = metadata !{i32 786478, i32 0, metadata !302, metadata !"nand_reduce", metadata !"nand_reduce", metadata !"_ZNK11ap_int_baseILi33ELb1ELb1EE11nand_reduceEv", metadata !64, i32 2288, metadata !440, i1 false, i1 false, i32 0, i32 0, null, i32 256, i1 false, null, null, i32 0, metadata !76, i32 2288} ; [ DW_TAG_subprogram ]
!578 = metadata !{i32 786478, i32 0, metadata !302, metadata !"or_reduce", metadata !"or_reduce", metadata !"_ZNK11ap_int_baseILi33ELb1ELb1EE9or_reduceEv", metadata !64, i32 2291, metadata !440, i1 false, i1 false, i32 0, i32 0, null, i32 256, i1 false, null, null, i32 0, metadata !76, i32 2291} ; [ DW_TAG_subprogram ]
!579 = metadata !{i32 786478, i32 0, metadata !302, metadata !"nor_reduce", metadata !"nor_reduce", metadata !"_ZNK11ap_int_baseILi33ELb1ELb1EE10nor_reduceEv", metadata !64, i32 2294, metadata !440, i1 false, i1 false, i32 0, i32 0, null, i32 256, i1 false, null, null, i32 0, metadata !76, i32 2294} ; [ DW_TAG_subprogram ]
!580 = metadata !{i32 786478, i32 0, metadata !302, metadata !"xor_reduce", metadata !"xor_reduce", metadata !"_ZNK11ap_int_baseILi33ELb1ELb1EE10xor_reduceEv", metadata !64, i32 2297, metadata !440, i1 false, i1 false, i32 0, i32 0, null, i32 256, i1 false, null, null, i32 0, metadata !76, i32 2297} ; [ DW_TAG_subprogram ]
!581 = metadata !{i32 786478, i32 0, metadata !302, metadata !"xnor_reduce", metadata !"xnor_reduce", metadata !"_ZNK11ap_int_baseILi33ELb1ELb1EE11xnor_reduceEv", metadata !64, i32 2300, metadata !440, i1 false, i1 false, i32 0, i32 0, null, i32 256, i1 false, null, null, i32 0, metadata !76, i32 2300} ; [ DW_TAG_subprogram ]
!582 = metadata !{i32 786478, i32 0, metadata !302, metadata !"to_string", metadata !"to_string", metadata !"_ZNK11ap_int_baseILi33ELb1ELb1EE9to_stringEPci8BaseModeb", metadata !64, i32 2307, metadata !583, i1 false, i1 false, i32 0, i32 0, null, i32 256, i1 false, null, null, i32 0, metadata !76, i32 2307} ; [ DW_TAG_subprogram ]
!583 = metadata !{i32 786453, i32 0, metadata !"", i32 0, i32 0, i64 0, i64 0, i64 0, i32 0, null, metadata !584, i32 0, i32 0} ; [ DW_TAG_subroutine_type ]
!584 = metadata !{null, metadata !438, metadata !585, metadata !80, metadata !586, metadata !82}
!585 = metadata !{i32 786447, null, metadata !"", null, i32 0, i64 64, i64 64, i64 0, i32 0, metadata !163} ; [ DW_TAG_pointer_type ]
!586 = metadata !{i32 786436, null, metadata !"BaseMode", metadata !64, i32 603, i64 5, i64 8, i32 0, i32 0, null, metadata !587, i32 0, i32 0} ; [ DW_TAG_enumeration_type ]
!587 = metadata !{metadata !588, metadata !589, metadata !590, metadata !591}
!588 = metadata !{i32 786472, metadata !"SC_BIN", i64 2} ; [ DW_TAG_enumerator ]
!589 = metadata !{i32 786472, metadata !"SC_OCT", i64 8} ; [ DW_TAG_enumerator ]
!590 = metadata !{i32 786472, metadata !"SC_DEC", i64 10} ; [ DW_TAG_enumerator ]
!591 = metadata !{i32 786472, metadata !"SC_HEX", i64 16} ; [ DW_TAG_enumerator ]
!592 = metadata !{i32 786478, i32 0, metadata !302, metadata !"to_string", metadata !"to_string", metadata !"_ZNK11ap_int_baseILi33ELb1ELb1EE9to_stringE8BaseModeb", metadata !64, i32 2334, metadata !593, i1 false, i1 false, i32 0, i32 0, null, i32 256, i1 false, null, null, i32 0, metadata !76, i32 2334} ; [ DW_TAG_subprogram ]
!593 = metadata !{i32 786453, i32 0, metadata !"", i32 0, i32 0, i64 0, i64 0, i64 0, i32 0, null, metadata !594, i32 0, i32 0} ; [ DW_TAG_subroutine_type ]
!594 = metadata !{metadata !585, metadata !438, metadata !586, metadata !82}
!595 = metadata !{i32 786478, i32 0, metadata !302, metadata !"to_string", metadata !"to_string", metadata !"_ZNK11ap_int_baseILi33ELb1ELb1EE9to_stringEab", metadata !64, i32 2338, metadata !596, i1 false, i1 false, i32 0, i32 0, null, i32 256, i1 false, null, null, i32 0, metadata !76, i32 2338} ; [ DW_TAG_subprogram ]
!596 = metadata !{i32 786453, i32 0, metadata !"", i32 0, i32 0, i64 0, i64 0, i64 0, i32 0, null, metadata !597, i32 0, i32 0} ; [ DW_TAG_subroutine_type ]
!597 = metadata !{metadata !585, metadata !438, metadata !107, metadata !82}
!598 = metadata !{metadata !564, metadata !315, metadata !599}
!599 = metadata !{i32 786480, null, metadata !"_AP_C", metadata !82, i64 1, null, i32 0, i32 0} ; [ DW_TAG_template_value_parameter ]
!600 = metadata !{i32 786478, i32 0, metadata !63, metadata !"range", metadata !"range", metadata !"_ZN11ap_int_baseILi32ELb0ELb1EE5rangeEii", metadata !64, i32 2007, metadata !601, i1 false, i1 false, i32 0, i32 0, null, i32 256, i1 false, null, null, i32 0, metadata !76, i32 2007} ; [ DW_TAG_subprogram ]
!601 = metadata !{i32 786453, i32 0, metadata !"", i32 0, i32 0, i64 0, i64 0, i64 0, i32 0, null, metadata !602, i32 0, i32 0} ; [ DW_TAG_subroutine_type ]
!602 = metadata !{metadata !603, metadata !86, metadata !80, metadata !80}
!603 = metadata !{i32 786434, null, metadata !"ap_range_ref<32, false>", metadata !64, i32 924, i64 128, i64 64, i32 0, i32 0, null, metadata !604, i32 0, null, metadata !660} ; [ DW_TAG_class_type ]
!604 = metadata !{metadata !605, metadata !606, metadata !607, metadata !608, metadata !614, metadata !618, metadata !622, metadata !625, metadata !629, metadata !632, metadata !636, metadata !639, metadata !640, metadata !643, metadata !646, metadata !649, metadata !652, metadata !655, metadata !658, metadata !659}
!605 = metadata !{i32 786445, metadata !603, metadata !"d_bv", metadata !64, i32 925, i64 64, i64 64, i64 0, i32 0, metadata !181} ; [ DW_TAG_member ]
!606 = metadata !{i32 786445, metadata !603, metadata !"l_index", metadata !64, i32 926, i64 32, i64 32, i64 64, i32 0, metadata !80} ; [ DW_TAG_member ]
!607 = metadata !{i32 786445, metadata !603, metadata !"h_index", metadata !64, i32 927, i64 32, i64 32, i64 96, i32 0, metadata !80} ; [ DW_TAG_member ]
!608 = metadata !{i32 786478, i32 0, metadata !603, metadata !"ap_range_ref", metadata !"ap_range_ref", metadata !"", metadata !64, i32 930, metadata !609, i1 false, i1 false, i32 0, i32 0, null, i32 256, i1 false, null, null, i32 0, metadata !76, i32 930} ; [ DW_TAG_subprogram ]
!609 = metadata !{i32 786453, i32 0, metadata !"", i32 0, i32 0, i64 0, i64 0, i64 0, i32 0, null, metadata !610, i32 0, i32 0} ; [ DW_TAG_subroutine_type ]
!610 = metadata !{null, metadata !611, metadata !612}
!611 = metadata !{i32 786447, i32 0, metadata !"", i32 0, i32 0, i64 64, i64 64, i64 0, i32 64, metadata !603} ; [ DW_TAG_pointer_type ]
!612 = metadata !{i32 786448, null, null, null, i32 0, i64 0, i64 0, i64 0, i32 0, metadata !613} ; [ DW_TAG_reference_type ]
!613 = metadata !{i32 786470, null, metadata !"", null, i32 0, i64 0, i64 0, i64 0, i32 0, metadata !603} ; [ DW_TAG_const_type ]
!614 = metadata !{i32 786478, i32 0, metadata !603, metadata !"ap_range_ref", metadata !"ap_range_ref", metadata !"", metadata !64, i32 933, metadata !615, i1 false, i1 false, i32 0, i32 0, null, i32 256, i1 false, null, null, i32 0, metadata !76, i32 933} ; [ DW_TAG_subprogram ]
!615 = metadata !{i32 786453, i32 0, metadata !"", i32 0, i32 0, i64 0, i64 0, i64 0, i32 0, null, metadata !616, i32 0, i32 0} ; [ DW_TAG_subroutine_type ]
!616 = metadata !{null, metadata !611, metadata !617, metadata !80, metadata !80}
!617 = metadata !{i32 786447, null, metadata !"", null, i32 0, i64 64, i64 64, i64 0, i32 0, metadata !63} ; [ DW_TAG_pointer_type ]
!618 = metadata !{i32 786478, i32 0, metadata !603, metadata !"operator ap_int_base", metadata !"operator ap_int_base", metadata !"_ZNK12ap_range_refILi32ELb0EEcv11ap_int_baseILi32ELb0ELb1EEEv", metadata !64, i32 938, metadata !619, i1 false, i1 false, i32 0, i32 0, null, i32 256, i1 false, null, null, i32 0, metadata !76, i32 938} ; [ DW_TAG_subprogram ]
!619 = metadata !{i32 786453, i32 0, metadata !"", i32 0, i32 0, i64 0, i64 0, i64 0, i32 0, null, metadata !620, i32 0, i32 0} ; [ DW_TAG_subroutine_type ]
!620 = metadata !{metadata !63, metadata !621}
!621 = metadata !{i32 786447, i32 0, metadata !"", i32 0, i32 0, i64 64, i64 64, i64 0, i32 64, metadata !613} ; [ DW_TAG_pointer_type ]
!622 = metadata !{i32 786478, i32 0, metadata !603, metadata !"operator unsigned long long", metadata !"operator unsigned long long", metadata !"_ZNK12ap_range_refILi32ELb0EEcvyEv", metadata !64, i32 944, metadata !623, i1 false, i1 false, i32 0, i32 0, null, i32 256, i1 false, null, null, i32 0, metadata !76, i32 944} ; [ DW_TAG_subprogram ]
!623 = metadata !{i32 786453, i32 0, metadata !"", i32 0, i32 0, i64 0, i64 0, i64 0, i32 0, null, metadata !624, i32 0, i32 0} ; [ DW_TAG_subroutine_type ]
!624 = metadata !{metadata !144, metadata !621}
!625 = metadata !{i32 786478, i32 0, metadata !603, metadata !"operator=", metadata !"operator=", metadata !"_ZN12ap_range_refILi32ELb0EEaSEy", metadata !64, i32 948, metadata !626, i1 false, i1 false, i32 0, i32 0, null, i32 256, i1 false, null, null, i32 0, metadata !76, i32 948} ; [ DW_TAG_subprogram ]
!626 = metadata !{i32 786453, i32 0, metadata !"", i32 0, i32 0, i64 0, i64 0, i64 0, i32 0, null, metadata !627, i32 0, i32 0} ; [ DW_TAG_subroutine_type ]
!627 = metadata !{metadata !628, metadata !611, metadata !144}
!628 = metadata !{i32 786448, null, null, null, i32 0, i64 0, i64 0, i64 0, i32 0, metadata !603} ; [ DW_TAG_reference_type ]
!629 = metadata !{i32 786478, i32 0, metadata !603, metadata !"operator=", metadata !"operator=", metadata !"_ZN12ap_range_refILi32ELb0EEaSERKS0_", metadata !64, i32 966, metadata !630, i1 false, i1 false, i32 0, i32 0, null, i32 256, i1 false, null, null, i32 0, metadata !76, i32 966} ; [ DW_TAG_subprogram ]
!630 = metadata !{i32 786453, i32 0, metadata !"", i32 0, i32 0, i64 0, i64 0, i64 0, i32 0, null, metadata !631, i32 0, i32 0} ; [ DW_TAG_subroutine_type ]
!631 = metadata !{metadata !628, metadata !611, metadata !612}
!632 = metadata !{i32 786478, i32 0, metadata !603, metadata !"operator,", metadata !"operator,", metadata !"_ZN12ap_range_refILi32ELb0EEcmER11ap_int_baseILi32ELb0ELb1EE", metadata !64, i32 1021, metadata !633, i1 false, i1 false, i32 0, i32 0, null, i32 256, i1 false, null, null, i32 0, metadata !76, i32 1021} ; [ DW_TAG_subprogram ]
!633 = metadata !{i32 786453, i32 0, metadata !"", i32 0, i32 0, i64 0, i64 0, i64 0, i32 0, null, metadata !634, i32 0, i32 0} ; [ DW_TAG_subroutine_type ]
!634 = metadata !{metadata !635, metadata !611, metadata !181}
!635 = metadata !{i32 786434, null, metadata !"ap_concat_ref<32, ap_range_ref<32, false>, 32, ap_int_base<32, false, true> >", metadata !64, i32 687, i32 0, i32 0, i32 0, i32 4, null, null, i32 0} ; [ DW_TAG_class_type ]
!636 = metadata !{i32 786478, i32 0, metadata !603, metadata !"length", metadata !"length", metadata !"_ZNK12ap_range_refILi32ELb0EE6lengthEv", metadata !64, i32 1132, metadata !637, i1 false, i1 false, i32 0, i32 0, null, i32 256, i1 false, null, null, i32 0, metadata !76, i32 1132} ; [ DW_TAG_subprogram ]
!637 = metadata !{i32 786453, i32 0, metadata !"", i32 0, i32 0, i64 0, i64 0, i64 0, i32 0, null, metadata !638, i32 0, i32 0} ; [ DW_TAG_subroutine_type ]
!638 = metadata !{metadata !80, metadata !621}
!639 = metadata !{i32 786478, i32 0, metadata !603, metadata !"to_int", metadata !"to_int", metadata !"_ZNK12ap_range_refILi32ELb0EE6to_intEv", metadata !64, i32 1136, metadata !637, i1 false, i1 false, i32 0, i32 0, null, i32 256, i1 false, null, null, i32 0, metadata !76, i32 1136} ; [ DW_TAG_subprogram ]
!640 = metadata !{i32 786478, i32 0, metadata !603, metadata !"to_uint", metadata !"to_uint", metadata !"_ZNK12ap_range_refILi32ELb0EE7to_uintEv", metadata !64, i32 1139, metadata !641, i1 false, i1 false, i32 0, i32 0, null, i32 256, i1 false, null, null, i32 0, metadata !76, i32 1139} ; [ DW_TAG_subprogram ]
!641 = metadata !{i32 786453, i32 0, metadata !"", i32 0, i32 0, i64 0, i64 0, i64 0, i32 0, null, metadata !642, i32 0, i32 0} ; [ DW_TAG_subroutine_type ]
!642 = metadata !{metadata !126, metadata !621}
!643 = metadata !{i32 786478, i32 0, metadata !603, metadata !"to_long", metadata !"to_long", metadata !"_ZNK12ap_range_refILi32ELb0EE7to_longEv", metadata !64, i32 1142, metadata !644, i1 false, i1 false, i32 0, i32 0, null, i32 256, i1 false, null, null, i32 0, metadata !76, i32 1142} ; [ DW_TAG_subprogram ]
!644 = metadata !{i32 786453, i32 0, metadata !"", i32 0, i32 0, i64 0, i64 0, i64 0, i32 0, null, metadata !645, i32 0, i32 0} ; [ DW_TAG_subroutine_type ]
!645 = metadata !{metadata !130, metadata !621}
!646 = metadata !{i32 786478, i32 0, metadata !603, metadata !"to_ulong", metadata !"to_ulong", metadata !"_ZNK12ap_range_refILi32ELb0EE8to_ulongEv", metadata !64, i32 1145, metadata !647, i1 false, i1 false, i32 0, i32 0, null, i32 256, i1 false, null, null, i32 0, metadata !76, i32 1145} ; [ DW_TAG_subprogram ]
!647 = metadata !{i32 786453, i32 0, metadata !"", i32 0, i32 0, i64 0, i64 0, i64 0, i32 0, null, metadata !648, i32 0, i32 0} ; [ DW_TAG_subroutine_type ]
!648 = metadata !{metadata !134, metadata !621}
!649 = metadata !{i32 786478, i32 0, metadata !603, metadata !"to_int64", metadata !"to_int64", metadata !"_ZNK12ap_range_refILi32ELb0EE8to_int64Ev", metadata !64, i32 1148, metadata !650, i1 false, i1 false, i32 0, i32 0, null, i32 256, i1 false, null, null, i32 0, metadata !76, i32 1148} ; [ DW_TAG_subprogram ]
!650 = metadata !{i32 786453, i32 0, metadata !"", i32 0, i32 0, i64 0, i64 0, i64 0, i32 0, null, metadata !651, i32 0, i32 0} ; [ DW_TAG_subroutine_type ]
!651 = metadata !{metadata !138, metadata !621}
!652 = metadata !{i32 786478, i32 0, metadata !603, metadata !"to_uint64", metadata !"to_uint64", metadata !"_ZNK12ap_range_refILi32ELb0EE9to_uint64Ev", metadata !64, i32 1151, metadata !653, i1 false, i1 false, i32 0, i32 0, null, i32 256, i1 false, null, null, i32 0, metadata !76, i32 1151} ; [ DW_TAG_subprogram ]
!653 = metadata !{i32 786453, i32 0, metadata !"", i32 0, i32 0, i64 0, i64 0, i64 0, i32 0, null, metadata !654, i32 0, i32 0} ; [ DW_TAG_subroutine_type ]
!654 = metadata !{metadata !143, metadata !621}
!655 = metadata !{i32 786478, i32 0, metadata !603, metadata !"and_reduce", metadata !"and_reduce", metadata !"_ZNK12ap_range_refILi32ELb0EE10and_reduceEv", metadata !64, i32 1154, metadata !656, i1 false, i1 false, i32 0, i32 0, null, i32 256, i1 false, null, null, i32 0, metadata !76, i32 1154} ; [ DW_TAG_subprogram ]
!656 = metadata !{i32 786453, i32 0, metadata !"", i32 0, i32 0, i64 0, i64 0, i64 0, i32 0, null, metadata !657, i32 0, i32 0} ; [ DW_TAG_subroutine_type ]
!657 = metadata !{metadata !82, metadata !621}
!658 = metadata !{i32 786478, i32 0, metadata !603, metadata !"or_reduce", metadata !"or_reduce", metadata !"_ZNK12ap_range_refILi32ELb0EE9or_reduceEv", metadata !64, i32 1165, metadata !656, i1 false, i1 false, i32 0, i32 0, null, i32 256, i1 false, null, null, i32 0, metadata !76, i32 1165} ; [ DW_TAG_subprogram ]
!659 = metadata !{i32 786478, i32 0, metadata !603, metadata !"xor_reduce", metadata !"xor_reduce", metadata !"_ZNK12ap_range_refILi32ELb0EE10xor_reduceEv", metadata !64, i32 1176, metadata !656, i1 false, i1 false, i32 0, i32 0, null, i32 256, i1 false, null, null, i32 0, metadata !76, i32 1176} ; [ DW_TAG_subprogram ]
!660 = metadata !{metadata !661, metadata !81}
!661 = metadata !{i32 786480, null, metadata !"_AP_W", metadata !80, i64 32, null, i32 0, i32 0} ; [ DW_TAG_template_value_parameter ]
!662 = metadata !{i32 786478, i32 0, metadata !63, metadata !"operator()", metadata !"operator()", metadata !"_ZN11ap_int_baseILi32ELb0ELb1EEclEii", metadata !64, i32 2013, metadata !601, i1 false, i1 false, i32 0, i32 0, null, i32 256, i1 false, null, null, i32 0, metadata !76, i32 2013} ; [ DW_TAG_subprogram ]
!663 = metadata !{i32 786478, i32 0, metadata !63, metadata !"range", metadata !"range", metadata !"_ZNK11ap_int_baseILi32ELb0ELb1EE5rangeEii", metadata !64, i32 2019, metadata !664, i1 false, i1 false, i32 0, i32 0, null, i32 256, i1 false, null, null, i32 0, metadata !76, i32 2019} ; [ DW_TAG_subprogram ]
!664 = metadata !{i32 786453, i32 0, metadata !"", i32 0, i32 0, i64 0, i64 0, i64 0, i32 0, null, metadata !665, i32 0, i32 0} ; [ DW_TAG_subroutine_type ]
!665 = metadata !{metadata !603, metadata !224, metadata !80, metadata !80}
!666 = metadata !{i32 786478, i32 0, metadata !63, metadata !"operator()", metadata !"operator()", metadata !"_ZNK11ap_int_baseILi32ELb0ELb1EEclEii", metadata !64, i32 2025, metadata !664, i1 false, i1 false, i32 0, i32 0, null, i32 256, i1 false, null, null, i32 0, metadata !76, i32 2025} ; [ DW_TAG_subprogram ]
!667 = metadata !{i32 786478, i32 0, metadata !63, metadata !"operator[]", metadata !"operator[]", metadata !"_ZN11ap_int_baseILi32ELb0ELb1EEixEi", metadata !64, i32 2044, metadata !668, i1 false, i1 false, i32 0, i32 0, null, i32 256, i1 false, null, null, i32 0, metadata !76, i32 2044} ; [ DW_TAG_subprogram ]
!668 = metadata !{i32 786453, i32 0, metadata !"", i32 0, i32 0, i64 0, i64 0, i64 0, i32 0, null, metadata !669, i32 0, i32 0} ; [ DW_TAG_subroutine_type ]
!669 = metadata !{metadata !670, metadata !86, metadata !80}
!670 = metadata !{i32 786434, null, metadata !"ap_bit_ref<32, false>", metadata !64, i32 1194, i32 0, i32 0, i32 0, i32 4, null, null, i32 0} ; [ DW_TAG_class_type ]
!671 = metadata !{i32 786478, i32 0, metadata !63, metadata !"operator[]", metadata !"operator[]", metadata !"_ZNK11ap_int_baseILi32ELb0ELb1EEixEi", metadata !64, i32 2058, metadata !275, i1 false, i1 false, i32 0, i32 0, null, i32 256, i1 false, null, null, i32 0, metadata !76, i32 2058} ; [ DW_TAG_subprogram ]
!672 = metadata !{i32 786478, i32 0, metadata !63, metadata !"bit", metadata !"bit", metadata !"_ZN11ap_int_baseILi32ELb0ELb1EE3bitEi", metadata !64, i32 2072, metadata !668, i1 false, i1 false, i32 0, i32 0, null, i32 256, i1 false, null, null, i32 0, metadata !76, i32 2072} ; [ DW_TAG_subprogram ]
!673 = metadata !{i32 786478, i32 0, metadata !63, metadata !"bit", metadata !"bit", metadata !"_ZNK11ap_int_baseILi32ELb0ELb1EE3bitEi", metadata !64, i32 2086, metadata !275, i1 false, i1 false, i32 0, i32 0, null, i32 256, i1 false, null, null, i32 0, metadata !76, i32 2086} ; [ DW_TAG_subprogram ]
!674 = metadata !{i32 786478, i32 0, metadata !63, metadata !"and_reduce", metadata !"and_reduce", metadata !"_ZN11ap_int_baseILi32ELb0ELb1EE10and_reduceEv", metadata !64, i32 2266, metadata !675, i1 false, i1 false, i32 0, i32 0, null, i32 256, i1 false, null, null, i32 0, metadata !76, i32 2266} ; [ DW_TAG_subprogram ]
!675 = metadata !{i32 786453, i32 0, metadata !"", i32 0, i32 0, i64 0, i64 0, i64 0, i32 0, null, metadata !676, i32 0, i32 0} ; [ DW_TAG_subroutine_type ]
!676 = metadata !{metadata !82, metadata !86}
!677 = metadata !{i32 786478, i32 0, metadata !63, metadata !"nand_reduce", metadata !"nand_reduce", metadata !"_ZN11ap_int_baseILi32ELb0ELb1EE11nand_reduceEv", metadata !64, i32 2269, metadata !675, i1 false, i1 false, i32 0, i32 0, null, i32 256, i1 false, null, null, i32 0, metadata !76, i32 2269} ; [ DW_TAG_subprogram ]
!678 = metadata !{i32 786478, i32 0, metadata !63, metadata !"or_reduce", metadata !"or_reduce", metadata !"_ZN11ap_int_baseILi32ELb0ELb1EE9or_reduceEv", metadata !64, i32 2272, metadata !675, i1 false, i1 false, i32 0, i32 0, null, i32 256, i1 false, null, null, i32 0, metadata !76, i32 2272} ; [ DW_TAG_subprogram ]
!679 = metadata !{i32 786478, i32 0, metadata !63, metadata !"nor_reduce", metadata !"nor_reduce", metadata !"_ZN11ap_int_baseILi32ELb0ELb1EE10nor_reduceEv", metadata !64, i32 2275, metadata !675, i1 false, i1 false, i32 0, i32 0, null, i32 256, i1 false, null, null, i32 0, metadata !76, i32 2275} ; [ DW_TAG_subprogram ]
!680 = metadata !{i32 786478, i32 0, metadata !63, metadata !"xor_reduce", metadata !"xor_reduce", metadata !"_ZN11ap_int_baseILi32ELb0ELb1EE10xor_reduceEv", metadata !64, i32 2278, metadata !675, i1 false, i1 false, i32 0, i32 0, null, i32 256, i1 false, null, null, i32 0, metadata !76, i32 2278} ; [ DW_TAG_subprogram ]
!681 = metadata !{i32 786478, i32 0, metadata !63, metadata !"xnor_reduce", metadata !"xnor_reduce", metadata !"_ZN11ap_int_baseILi32ELb0ELb1EE11xnor_reduceEv", metadata !64, i32 2281, metadata !675, i1 false, i1 false, i32 0, i32 0, null, i32 256, i1 false, null, null, i32 0, metadata !76, i32 2281} ; [ DW_TAG_subprogram ]
!682 = metadata !{i32 786478, i32 0, metadata !63, metadata !"and_reduce", metadata !"and_reduce", metadata !"_ZNK11ap_int_baseILi32ELb0ELb1EE10and_reduceEv", metadata !64, i32 2285, metadata !226, i1 false, i1 false, i32 0, i32 0, null, i32 256, i1 false, null, null, i32 0, metadata !76, i32 2285} ; [ DW_TAG_subprogram ]
!683 = metadata !{i32 786478, i32 0, metadata !63, metadata !"nand_reduce", metadata !"nand_reduce", metadata !"_ZNK11ap_int_baseILi32ELb0ELb1EE11nand_reduceEv", metadata !64, i32 2288, metadata !226, i1 false, i1 false, i32 0, i32 0, null, i32 256, i1 false, null, null, i32 0, metadata !76, i32 2288} ; [ DW_TAG_subprogram ]
!684 = metadata !{i32 786478, i32 0, metadata !63, metadata !"or_reduce", metadata !"or_reduce", metadata !"_ZNK11ap_int_baseILi32ELb0ELb1EE9or_reduceEv", metadata !64, i32 2291, metadata !226, i1 false, i1 false, i32 0, i32 0, null, i32 256, i1 false, null, null, i32 0, metadata !76, i32 2291} ; [ DW_TAG_subprogram ]
!685 = metadata !{i32 786478, i32 0, metadata !63, metadata !"nor_reduce", metadata !"nor_reduce", metadata !"_ZNK11ap_int_baseILi32ELb0ELb1EE10nor_reduceEv", metadata !64, i32 2294, metadata !226, i1 false, i1 false, i32 0, i32 0, null, i32 256, i1 false, null, null, i32 0, metadata !76, i32 2294} ; [ DW_TAG_subprogram ]
!686 = metadata !{i32 786478, i32 0, metadata !63, metadata !"xor_reduce", metadata !"xor_reduce", metadata !"_ZNK11ap_int_baseILi32ELb0ELb1EE10xor_reduceEv", metadata !64, i32 2297, metadata !226, i1 false, i1 false, i32 0, i32 0, null, i32 256, i1 false, null, null, i32 0, metadata !76, i32 2297} ; [ DW_TAG_subprogram ]
!687 = metadata !{i32 786478, i32 0, metadata !63, metadata !"xnor_reduce", metadata !"xnor_reduce", metadata !"_ZNK11ap_int_baseILi32ELb0ELb1EE11xnor_reduceEv", metadata !64, i32 2300, metadata !226, i1 false, i1 false, i32 0, i32 0, null, i32 256, i1 false, null, null, i32 0, metadata !76, i32 2300} ; [ DW_TAG_subprogram ]
!688 = metadata !{i32 786478, i32 0, metadata !63, metadata !"to_string", metadata !"to_string", metadata !"_ZNK11ap_int_baseILi32ELb0ELb1EE9to_stringEPci8BaseModeb", metadata !64, i32 2307, metadata !689, i1 false, i1 false, i32 0, i32 0, null, i32 256, i1 false, null, null, i32 0, metadata !76, i32 2307} ; [ DW_TAG_subprogram ]
!689 = metadata !{i32 786453, i32 0, metadata !"", i32 0, i32 0, i64 0, i64 0, i64 0, i32 0, null, metadata !690, i32 0, i32 0} ; [ DW_TAG_subroutine_type ]
!690 = metadata !{null, metadata !224, metadata !585, metadata !80, metadata !586, metadata !82}
!691 = metadata !{i32 786478, i32 0, metadata !63, metadata !"to_string", metadata !"to_string", metadata !"_ZNK11ap_int_baseILi32ELb0ELb1EE9to_stringE8BaseModeb", metadata !64, i32 2334, metadata !692, i1 false, i1 false, i32 0, i32 0, null, i32 256, i1 false, null, null, i32 0, metadata !76, i32 2334} ; [ DW_TAG_subprogram ]
!692 = metadata !{i32 786453, i32 0, metadata !"", i32 0, i32 0, i64 0, i64 0, i64 0, i32 0, null, metadata !693, i32 0, i32 0} ; [ DW_TAG_subroutine_type ]
!693 = metadata !{metadata !585, metadata !224, metadata !586, metadata !82}
!694 = metadata !{i32 786478, i32 0, metadata !63, metadata !"to_string", metadata !"to_string", metadata !"_ZNK11ap_int_baseILi32ELb0ELb1EE9to_stringEab", metadata !64, i32 2338, metadata !695, i1 false, i1 false, i32 0, i32 0, null, i32 256, i1 false, null, null, i32 0, metadata !76, i32 2338} ; [ DW_TAG_subprogram ]
!695 = metadata !{i32 786453, i32 0, metadata !"", i32 0, i32 0, i64 0, i64 0, i64 0, i32 0, null, metadata !696, i32 0, i32 0} ; [ DW_TAG_subroutine_type ]
!696 = metadata !{metadata !585, metadata !224, metadata !107, metadata !82}
!697 = metadata !{metadata !661, metadata !81, metadata !599}
!698 = metadata !{i32 786478, i32 0, metadata !59, metadata !"ap_uint", metadata !"ap_uint", metadata !"", metadata !60, i32 185, metadata !699, i1 false, i1 false, i32 0, i32 0, null, i32 256, i1 false, null, null, i32 0, metadata !76, i32 185} ; [ DW_TAG_subprogram ]
!699 = metadata !{i32 786453, i32 0, metadata !"", i32 0, i32 0, i64 0, i64 0, i64 0, i32 0, null, metadata !700, i32 0, i32 0} ; [ DW_TAG_subroutine_type ]
!700 = metadata !{null, metadata !701}
!701 = metadata !{i32 786447, i32 0, metadata !"", i32 0, i32 0, i64 64, i64 64, i64 0, i32 64, metadata !59} ; [ DW_TAG_pointer_type ]
!702 = metadata !{i32 786478, i32 0, metadata !59, metadata !"ap_uint", metadata !"ap_uint", metadata !"", metadata !60, i32 247, metadata !703, i1 false, i1 false, i32 0, i32 0, null, i32 256, i1 false, null, null, i32 0, metadata !76, i32 247} ; [ DW_TAG_subprogram ]
!703 = metadata !{i32 786453, i32 0, metadata !"", i32 0, i32 0, i64 0, i64 0, i64 0, i32 0, null, metadata !704, i32 0, i32 0} ; [ DW_TAG_subroutine_type ]
!704 = metadata !{null, metadata !701, metadata !82}
!705 = metadata !{i32 786478, i32 0, metadata !59, metadata !"ap_uint", metadata !"ap_uint", metadata !"", metadata !60, i32 248, metadata !706, i1 false, i1 false, i32 0, i32 0, null, i32 256, i1 false, null, null, i32 0, metadata !76, i32 248} ; [ DW_TAG_subprogram ]
!706 = metadata !{i32 786453, i32 0, metadata !"", i32 0, i32 0, i64 0, i64 0, i64 0, i32 0, null, metadata !707, i32 0, i32 0} ; [ DW_TAG_subroutine_type ]
!707 = metadata !{null, metadata !701, metadata !107}
!708 = metadata !{i32 786478, i32 0, metadata !59, metadata !"ap_uint", metadata !"ap_uint", metadata !"", metadata !60, i32 249, metadata !709, i1 false, i1 false, i32 0, i32 0, null, i32 256, i1 false, null, null, i32 0, metadata !76, i32 249} ; [ DW_TAG_subprogram ]
!709 = metadata !{i32 786453, i32 0, metadata !"", i32 0, i32 0, i64 0, i64 0, i64 0, i32 0, null, metadata !710, i32 0, i32 0} ; [ DW_TAG_subroutine_type ]
!710 = metadata !{null, metadata !701, metadata !111}
!711 = metadata !{i32 786478, i32 0, metadata !59, metadata !"ap_uint", metadata !"ap_uint", metadata !"", metadata !60, i32 250, metadata !712, i1 false, i1 false, i32 0, i32 0, null, i32 256, i1 false, null, null, i32 0, metadata !76, i32 250} ; [ DW_TAG_subprogram ]
!712 = metadata !{i32 786453, i32 0, metadata !"", i32 0, i32 0, i64 0, i64 0, i64 0, i32 0, null, metadata !713, i32 0, i32 0} ; [ DW_TAG_subroutine_type ]
!713 = metadata !{null, metadata !701, metadata !115}
!714 = metadata !{i32 786478, i32 0, metadata !59, metadata !"ap_uint", metadata !"ap_uint", metadata !"", metadata !60, i32 251, metadata !715, i1 false, i1 false, i32 0, i32 0, null, i32 256, i1 false, null, null, i32 0, metadata !76, i32 251} ; [ DW_TAG_subprogram ]
!715 = metadata !{i32 786453, i32 0, metadata !"", i32 0, i32 0, i64 0, i64 0, i64 0, i32 0, null, metadata !716, i32 0, i32 0} ; [ DW_TAG_subroutine_type ]
!716 = metadata !{null, metadata !701, metadata !119}
!717 = metadata !{i32 786478, i32 0, metadata !59, metadata !"ap_uint", metadata !"ap_uint", metadata !"", metadata !60, i32 252, metadata !718, i1 false, i1 false, i32 0, i32 0, null, i32 256, i1 false, null, null, i32 0, metadata !76, i32 252} ; [ DW_TAG_subprogram ]
!718 = metadata !{i32 786453, i32 0, metadata !"", i32 0, i32 0, i64 0, i64 0, i64 0, i32 0, null, metadata !719, i32 0, i32 0} ; [ DW_TAG_subroutine_type ]
!719 = metadata !{null, metadata !701, metadata !80}
!720 = metadata !{i32 786478, i32 0, metadata !59, metadata !"ap_uint", metadata !"ap_uint", metadata !"", metadata !60, i32 253, metadata !721, i1 false, i1 false, i32 0, i32 0, null, i32 256, i1 false, null, null, i32 0, metadata !76, i32 253} ; [ DW_TAG_subprogram ]
!721 = metadata !{i32 786453, i32 0, metadata !"", i32 0, i32 0, i64 0, i64 0, i64 0, i32 0, null, metadata !722, i32 0, i32 0} ; [ DW_TAG_subroutine_type ]
!722 = metadata !{null, metadata !701, metadata !126}
!723 = metadata !{i32 786478, i32 0, metadata !59, metadata !"ap_uint", metadata !"ap_uint", metadata !"", metadata !60, i32 254, metadata !724, i1 false, i1 false, i32 0, i32 0, null, i32 256, i1 false, null, null, i32 0, metadata !76, i32 254} ; [ DW_TAG_subprogram ]
!724 = metadata !{i32 786453, i32 0, metadata !"", i32 0, i32 0, i64 0, i64 0, i64 0, i32 0, null, metadata !725, i32 0, i32 0} ; [ DW_TAG_subroutine_type ]
!725 = metadata !{null, metadata !701, metadata !130}
!726 = metadata !{i32 786478, i32 0, metadata !59, metadata !"ap_uint", metadata !"ap_uint", metadata !"", metadata !60, i32 255, metadata !727, i1 false, i1 false, i32 0, i32 0, null, i32 256, i1 false, null, null, i32 0, metadata !76, i32 255} ; [ DW_TAG_subprogram ]
!727 = metadata !{i32 786453, i32 0, metadata !"", i32 0, i32 0, i64 0, i64 0, i64 0, i32 0, null, metadata !728, i32 0, i32 0} ; [ DW_TAG_subroutine_type ]
!728 = metadata !{null, metadata !701, metadata !134}
!729 = metadata !{i32 786478, i32 0, metadata !59, metadata !"ap_uint", metadata !"ap_uint", metadata !"", metadata !60, i32 256, metadata !730, i1 false, i1 false, i32 0, i32 0, null, i32 256, i1 false, null, null, i32 0, metadata !76, i32 256} ; [ DW_TAG_subprogram ]
!730 = metadata !{i32 786453, i32 0, metadata !"", i32 0, i32 0, i64 0, i64 0, i64 0, i32 0, null, metadata !731, i32 0, i32 0} ; [ DW_TAG_subroutine_type ]
!731 = metadata !{null, metadata !701, metadata !144}
!732 = metadata !{i32 786478, i32 0, metadata !59, metadata !"ap_uint", metadata !"ap_uint", metadata !"", metadata !60, i32 257, metadata !733, i1 false, i1 false, i32 0, i32 0, null, i32 256, i1 false, null, null, i32 0, metadata !76, i32 257} ; [ DW_TAG_subprogram ]
!733 = metadata !{i32 786453, i32 0, metadata !"", i32 0, i32 0, i64 0, i64 0, i64 0, i32 0, null, metadata !734, i32 0, i32 0} ; [ DW_TAG_subroutine_type ]
!734 = metadata !{null, metadata !701, metadata !139}
!735 = metadata !{i32 786478, i32 0, metadata !59, metadata !"ap_uint", metadata !"ap_uint", metadata !"", metadata !60, i32 258, metadata !736, i1 false, i1 false, i32 0, i32 0, null, i32 256, i1 false, null, null, i32 0, metadata !76, i32 258} ; [ DW_TAG_subprogram ]
!736 = metadata !{i32 786453, i32 0, metadata !"", i32 0, i32 0, i64 0, i64 0, i64 0, i32 0, null, metadata !737, i32 0, i32 0} ; [ DW_TAG_subroutine_type ]
!737 = metadata !{null, metadata !701, metadata !148}
!738 = metadata !{i32 786478, i32 0, metadata !59, metadata !"ap_uint", metadata !"ap_uint", metadata !"", metadata !60, i32 259, metadata !739, i1 false, i1 false, i32 0, i32 0, null, i32 256, i1 false, null, null, i32 0, metadata !76, i32 259} ; [ DW_TAG_subprogram ]
!739 = metadata !{i32 786453, i32 0, metadata !"", i32 0, i32 0, i64 0, i64 0, i64 0, i32 0, null, metadata !740, i32 0, i32 0} ; [ DW_TAG_subroutine_type ]
!740 = metadata !{null, metadata !701, metadata !153}
!741 = metadata !{i32 786478, i32 0, metadata !59, metadata !"ap_uint", metadata !"ap_uint", metadata !"", metadata !60, i32 260, metadata !742, i1 false, i1 false, i32 0, i32 0, null, i32 256, i1 false, null, null, i32 0, metadata !76, i32 260} ; [ DW_TAG_subprogram ]
!742 = metadata !{i32 786453, i32 0, metadata !"", i32 0, i32 0, i64 0, i64 0, i64 0, i32 0, null, metadata !743, i32 0, i32 0} ; [ DW_TAG_subroutine_type ]
!743 = metadata !{null, metadata !701, metadata !157}
!744 = metadata !{i32 786478, i32 0, metadata !59, metadata !"ap_uint", metadata !"ap_uint", metadata !"", metadata !60, i32 262, metadata !745, i1 false, i1 false, i32 0, i32 0, null, i32 256, i1 false, null, null, i32 0, metadata !76, i32 262} ; [ DW_TAG_subprogram ]
!745 = metadata !{i32 786453, i32 0, metadata !"", i32 0, i32 0, i64 0, i64 0, i64 0, i32 0, null, metadata !746, i32 0, i32 0} ; [ DW_TAG_subroutine_type ]
!746 = metadata !{null, metadata !701, metadata !161}
!747 = metadata !{i32 786478, i32 0, metadata !59, metadata !"ap_uint", metadata !"ap_uint", metadata !"", metadata !60, i32 263, metadata !748, i1 false, i1 false, i32 0, i32 0, null, i32 256, i1 false, null, null, i32 0, metadata !76, i32 263} ; [ DW_TAG_subprogram ]
!748 = metadata !{i32 786453, i32 0, metadata !"", i32 0, i32 0, i64 0, i64 0, i64 0, i32 0, null, metadata !749, i32 0, i32 0} ; [ DW_TAG_subroutine_type ]
!749 = metadata !{null, metadata !701, metadata !161, metadata !107}
!750 = metadata !{i32 786478, i32 0, metadata !59, metadata !"operator=", metadata !"operator=", metadata !"_ZNV7ap_uintILi32EEaSERKS0_", metadata !60, i32 266, metadata !751, i1 false, i1 false, i32 0, i32 0, null, i32 256, i1 false, null, null, i32 0, metadata !76, i32 266} ; [ DW_TAG_subprogram ]
!751 = metadata !{i32 786453, i32 0, metadata !"", i32 0, i32 0, i64 0, i64 0, i64 0, i32 0, null, metadata !752, i32 0, i32 0} ; [ DW_TAG_subroutine_type ]
!752 = metadata !{null, metadata !753, metadata !755}
!753 = metadata !{i32 786447, i32 0, metadata !"", i32 0, i32 0, i64 64, i64 64, i64 0, i32 64, metadata !754} ; [ DW_TAG_pointer_type ]
!754 = metadata !{i32 786485, null, metadata !"", null, i32 0, i64 0, i64 0, i64 0, i32 0, metadata !59} ; [ DW_TAG_volatile_type ]
!755 = metadata !{i32 786448, null, null, null, i32 0, i64 0, i64 0, i64 0, i32 0, metadata !756} ; [ DW_TAG_reference_type ]
!756 = metadata !{i32 786470, null, metadata !"", null, i32 0, i64 0, i64 0, i64 0, i32 0, metadata !59} ; [ DW_TAG_const_type ]
!757 = metadata !{i32 786478, i32 0, metadata !59, metadata !"operator=", metadata !"operator=", metadata !"_ZNV7ap_uintILi32EEaSERVKS0_", metadata !60, i32 270, metadata !758, i1 false, i1 false, i32 0, i32 0, null, i32 256, i1 false, null, null, i32 0, metadata !76, i32 270} ; [ DW_TAG_subprogram ]
!758 = metadata !{i32 786453, i32 0, metadata !"", i32 0, i32 0, i64 0, i64 0, i64 0, i32 0, null, metadata !759, i32 0, i32 0} ; [ DW_TAG_subroutine_type ]
!759 = metadata !{null, metadata !753, metadata !760}
!760 = metadata !{i32 786448, null, null, null, i32 0, i64 0, i64 0, i64 0, i32 0, metadata !761} ; [ DW_TAG_reference_type ]
!761 = metadata !{i32 786470, null, metadata !"", null, i32 0, i64 0, i64 0, i64 0, i32 0, metadata !754} ; [ DW_TAG_const_type ]
!762 = metadata !{i32 786478, i32 0, metadata !59, metadata !"operator=", metadata !"operator=", metadata !"_ZN7ap_uintILi32EEaSERVKS0_", metadata !60, i32 274, metadata !763, i1 false, i1 false, i32 0, i32 0, null, i32 256, i1 false, null, null, i32 0, metadata !76, i32 274} ; [ DW_TAG_subprogram ]
!763 = metadata !{i32 786453, i32 0, metadata !"", i32 0, i32 0, i64 0, i64 0, i64 0, i32 0, null, metadata !764, i32 0, i32 0} ; [ DW_TAG_subroutine_type ]
!764 = metadata !{metadata !765, metadata !701, metadata !760}
!765 = metadata !{i32 786448, null, null, null, i32 0, i64 0, i64 0, i64 0, i32 0, metadata !59} ; [ DW_TAG_reference_type ]
!766 = metadata !{i32 786478, i32 0, metadata !59, metadata !"operator=", metadata !"operator=", metadata !"_ZN7ap_uintILi32EEaSERKS0_", metadata !60, i32 279, metadata !767, i1 false, i1 false, i32 0, i32 0, null, i32 256, i1 false, null, null, i32 0, metadata !76, i32 279} ; [ DW_TAG_subprogram ]
!767 = metadata !{i32 786453, i32 0, metadata !"", i32 0, i32 0, i64 0, i64 0, i64 0, i32 0, null, metadata !768, i32 0, i32 0} ; [ DW_TAG_subroutine_type ]
!768 = metadata !{metadata !765, metadata !701, metadata !755}
!769 = metadata !{metadata !661}
!770 = metadata !{i32 786478, i32 0, metadata !54, metadata !"stream", metadata !"stream", metadata !"", metadata !56, i32 83, metadata !771, i1 false, i1 false, i32 0, i32 0, null, i32 256, i1 false, null, null, i32 0, metadata !76, i32 83} ; [ DW_TAG_subprogram ]
!771 = metadata !{i32 786453, i32 0, metadata !"", i32 0, i32 0, i64 0, i64 0, i64 0, i32 0, null, metadata !772, i32 0, i32 0} ; [ DW_TAG_subroutine_type ]
!772 = metadata !{null, metadata !773}
!773 = metadata !{i32 786447, i32 0, metadata !"", i32 0, i32 0, i64 64, i64 64, i64 0, i32 64, metadata !54} ; [ DW_TAG_pointer_type ]
!774 = metadata !{i32 786478, i32 0, metadata !54, metadata !"stream", metadata !"stream", metadata !"", metadata !56, i32 86, metadata !775, i1 false, i1 false, i32 0, i32 0, null, i32 256, i1 false, null, null, i32 0, metadata !76, i32 86} ; [ DW_TAG_subprogram ]
!775 = metadata !{i32 786453, i32 0, metadata !"", i32 0, i32 0, i64 0, i64 0, i64 0, i32 0, null, metadata !776, i32 0, i32 0} ; [ DW_TAG_subroutine_type ]
!776 = metadata !{null, metadata !773, metadata !161}
!777 = metadata !{i32 786478, i32 0, metadata !54, metadata !"stream", metadata !"stream", metadata !"", metadata !56, i32 91, metadata !778, i1 false, i1 false, i32 0, i32 0, null, i32 257, i1 false, null, null, i32 0, metadata !76, i32 91} ; [ DW_TAG_subprogram ]
!778 = metadata !{i32 786453, i32 0, metadata !"", i32 0, i32 0, i64 0, i64 0, i64 0, i32 0, null, metadata !779, i32 0, i32 0} ; [ DW_TAG_subroutine_type ]
!779 = metadata !{null, metadata !773, metadata !780}
!780 = metadata !{i32 786448, null, null, null, i32 0, i64 0, i64 0, i64 0, i32 0, metadata !781} ; [ DW_TAG_reference_type ]
!781 = metadata !{i32 786470, null, metadata !"", null, i32 0, i64 0, i64 0, i64 0, i32 0, metadata !54} ; [ DW_TAG_const_type ]
!782 = metadata !{i32 786478, i32 0, metadata !54, metadata !"operator=", metadata !"operator=", metadata !"_ZN3hls6streamI7ap_uintILi32EEEaSERKS3_", metadata !56, i32 94, metadata !783, i1 false, i1 false, i32 0, i32 0, null, i32 257, i1 false, null, null, i32 0, metadata !76, i32 94} ; [ DW_TAG_subprogram ]
!783 = metadata !{i32 786453, i32 0, metadata !"", i32 0, i32 0, i64 0, i64 0, i64 0, i32 0, null, metadata !784, i32 0, i32 0} ; [ DW_TAG_subroutine_type ]
!784 = metadata !{metadata !53, metadata !773, metadata !780}
!785 = metadata !{i32 786478, i32 0, metadata !54, metadata !"operator>>", metadata !"operator>>", metadata !"_ZN3hls6streamI7ap_uintILi32EEErsERS2_", metadata !56, i32 101, metadata !786, i1 false, i1 false, i32 0, i32 0, null, i32 256, i1 false, null, null, i32 0, metadata !76, i32 101} ; [ DW_TAG_subprogram ]
!786 = metadata !{i32 786453, i32 0, metadata !"", i32 0, i32 0, i64 0, i64 0, i64 0, i32 0, null, metadata !787, i32 0, i32 0} ; [ DW_TAG_subroutine_type ]
!787 = metadata !{null, metadata !773, metadata !765}
!788 = metadata !{i32 786478, i32 0, metadata !54, metadata !"operator<<", metadata !"operator<<", metadata !"_ZN3hls6streamI7ap_uintILi32EEElsERKS2_", metadata !56, i32 105, metadata !789, i1 false, i1 false, i32 0, i32 0, null, i32 256, i1 false, null, null, i32 0, metadata !76, i32 105} ; [ DW_TAG_subprogram ]
!789 = metadata !{i32 786453, i32 0, metadata !"", i32 0, i32 0, i64 0, i64 0, i64 0, i32 0, null, metadata !790, i32 0, i32 0} ; [ DW_TAG_subroutine_type ]
!790 = metadata !{null, metadata !773, metadata !755}
!791 = metadata !{i32 786478, i32 0, metadata !54, metadata !"empty", metadata !"empty", metadata !"_ZNK3hls6streamI7ap_uintILi32EEE5emptyEv", metadata !56, i32 112, metadata !792, i1 false, i1 false, i32 0, i32 0, null, i32 256, i1 false, null, null, i32 0, metadata !76, i32 112} ; [ DW_TAG_subprogram ]
!792 = metadata !{i32 786453, i32 0, metadata !"", i32 0, i32 0, i64 0, i64 0, i64 0, i32 0, null, metadata !793, i32 0, i32 0} ; [ DW_TAG_subroutine_type ]
!793 = metadata !{metadata !82, metadata !794}
!794 = metadata !{i32 786447, i32 0, metadata !"", i32 0, i32 0, i64 64, i64 64, i64 0, i32 64, metadata !781} ; [ DW_TAG_pointer_type ]
!795 = metadata !{i32 786478, i32 0, metadata !54, metadata !"full", metadata !"full", metadata !"_ZNK3hls6streamI7ap_uintILi32EEE4fullEv", metadata !56, i32 117, metadata !792, i1 false, i1 false, i32 0, i32 0, null, i32 256, i1 false, null, null, i32 0, metadata !76, i32 117} ; [ DW_TAG_subprogram ]
!796 = metadata !{i32 786478, i32 0, metadata !54, metadata !"read", metadata !"read", metadata !"_ZN3hls6streamI7ap_uintILi32EEE4readERS2_", metadata !56, i32 123, metadata !786, i1 false, i1 false, i32 0, i32 0, null, i32 256, i1 false, null, null, i32 0, metadata !76, i32 123} ; [ DW_TAG_subprogram ]
!797 = metadata !{i32 786478, i32 0, metadata !54, metadata !"read", metadata !"read", metadata !"_ZN3hls6streamI7ap_uintILi32EEE4readEv", metadata !56, i32 129, metadata !798, i1 false, i1 false, i32 0, i32 0, null, i32 256, i1 false, null, null, i32 0, metadata !76, i32 129} ; [ DW_TAG_subprogram ]
!798 = metadata !{i32 786453, i32 0, metadata !"", i32 0, i32 0, i64 0, i64 0, i64 0, i32 0, null, metadata !799, i32 0, i32 0} ; [ DW_TAG_subroutine_type ]
!799 = metadata !{metadata !59, metadata !773}
!800 = metadata !{i32 786478, i32 0, metadata !54, metadata !"read_nb", metadata !"read_nb", metadata !"_ZN3hls6streamI7ap_uintILi32EEE7read_nbERS2_", metadata !56, i32 136, metadata !801, i1 false, i1 false, i32 0, i32 0, null, i32 256, i1 false, null, null, i32 0, metadata !76, i32 136} ; [ DW_TAG_subprogram ]
!801 = metadata !{i32 786453, i32 0, metadata !"", i32 0, i32 0, i64 0, i64 0, i64 0, i32 0, null, metadata !802, i32 0, i32 0} ; [ DW_TAG_subroutine_type ]
!802 = metadata !{metadata !82, metadata !773, metadata !765}
!803 = metadata !{i32 786478, i32 0, metadata !54, metadata !"write", metadata !"write", metadata !"_ZN3hls6streamI7ap_uintILi32EEE5writeERKS2_", metadata !56, i32 144, metadata !789, i1 false, i1 false, i32 0, i32 0, null, i32 256, i1 false, null, null, i32 0, metadata !76, i32 144} ; [ DW_TAG_subprogram ]
!804 = metadata !{i32 786478, i32 0, metadata !54, metadata !"write_nb", metadata !"write_nb", metadata !"_ZN3hls6streamI7ap_uintILi32EEE8write_nbERKS2_", metadata !56, i32 150, metadata !805, i1 false, i1 false, i32 0, i32 0, null, i32 256, i1 false, null, null, i32 0, metadata !76, i32 150} ; [ DW_TAG_subprogram ]
!805 = metadata !{i32 786453, i32 0, metadata !"", i32 0, i32 0, i64 0, i64 0, i64 0, i32 0, null, metadata !806, i32 0, i32 0} ; [ DW_TAG_subroutine_type ]
!806 = metadata !{metadata !82, metadata !773, metadata !755}
!807 = metadata !{i32 786478, i32 0, metadata !54, metadata !"size", metadata !"size", metadata !"_ZN3hls6streamI7ap_uintILi32EEE4sizeEv", metadata !56, i32 157, metadata !808, i1 false, i1 false, i32 0, i32 0, null, i32 256, i1 false, null, null, i32 0, metadata !76, i32 157} ; [ DW_TAG_subprogram ]
!808 = metadata !{i32 786453, i32 0, metadata !"", i32 0, i32 0, i64 0, i64 0, i64 0, i32 0, null, metadata !809, i32 0, i32 0} ; [ DW_TAG_subroutine_type ]
!809 = metadata !{metadata !126, metadata !773}
!810 = metadata !{metadata !811}
!811 = metadata !{i32 786479, null, metadata !"__STREAM_T__", metadata !59, null, i32 0, i32 0} ; [ DW_TAG_template_type_parameter ]
!812 = metadata !{i32 786434, null, metadata !"ap_uint<1>", metadata !60, i32 182, i64 8, i64 8, i32 0, i32 0, null, metadata !813, i32 0, null, metadata !1130} ; [ DW_TAG_class_type ]
!813 = metadata !{metadata !814, metadata !1059, metadata !1063, metadata !1066, metadata !1069, metadata !1072, metadata !1075, metadata !1078, metadata !1081, metadata !1084, metadata !1087, metadata !1090, metadata !1093, metadata !1096, metadata !1099, metadata !1102, metadata !1105, metadata !1108, metadata !1111, metadata !1118, metadata !1123, metadata !1127}
!814 = metadata !{i32 786460, metadata !812, null, metadata !60, i32 0, i64 0, i64 0, i64 0, i32 0, metadata !815} ; [ DW_TAG_inheritance ]
!815 = metadata !{i32 786434, null, metadata !"ap_int_base<1, false, true>", metadata !64, i32 1398, i64 8, i64 8, i32 0, i32 0, null, metadata !816, i32 0, null, metadata !1057} ; [ DW_TAG_class_type ]
!816 = metadata !{metadata !817, metadata !828, metadata !832, metadata !835, metadata !838, metadata !841, metadata !844, metadata !847, metadata !850, metadata !853, metadata !856, metadata !859, metadata !862, metadata !865, metadata !868, metadata !871, metadata !874, metadata !877, metadata !880, metadata !885, metadata !890, metadata !895, metadata !896, metadata !900, metadata !903, metadata !906, metadata !909, metadata !912, metadata !915, metadata !918, metadata !921, metadata !924, metadata !927, metadata !930, metadata !933, metadata !940, metadata !943, metadata !946, metadata !949, metadata !952, metadata !955, metadata !958, metadata !961, metadata !964, metadata !967, metadata !970, metadata !973, metadata !976, metadata !977, metadata !981, metadata !984, metadata !985, metadata !986, metadata !987, metadata !988, metadata !989, metadata !992, metadata !993, metadata !996, metadata !997, metadata !998, metadata !999, metadata !1000, metadata !1001, metadata !1004, metadata !1005, metadata !1006, metadata !1009, metadata !1010, metadata !1013, metadata !1014, metadata !1018, metadata !1022, metadata !1023, metadata !1026, metadata !1027, metadata !1031, metadata !1032, metadata !1033, metadata !1034, metadata !1037, metadata !1038, metadata !1039, metadata !1040, metadata !1041, metadata !1042, metadata !1043, metadata !1044, metadata !1045, metadata !1046, metadata !1047, metadata !1048, metadata !1051, metadata !1054}
!817 = metadata !{i32 786460, metadata !815, null, metadata !64, i32 0, i64 0, i64 0, i64 0, i32 0, metadata !818} ; [ DW_TAG_inheritance ]
!818 = metadata !{i32 786434, null, metadata !"ssdm_int<1 + 1024 * 0, false>", metadata !68, i32 3, i64 8, i64 8, i32 0, i32 0, null, metadata !819, i32 0, null, metadata !826} ; [ DW_TAG_class_type ]
!819 = metadata !{metadata !820, metadata !822}
!820 = metadata !{i32 786445, metadata !818, metadata !"V", metadata !68, i32 3, i64 1, i64 1, i64 0, i32 0, metadata !821} ; [ DW_TAG_member ]
!821 = metadata !{i32 786468, null, metadata !"uint1", null, i32 0, i64 1, i64 1, i64 0, i32 0, i32 7} ; [ DW_TAG_base_type ]
!822 = metadata !{i32 786478, i32 0, metadata !818, metadata !"ssdm_int", metadata !"ssdm_int", metadata !"", metadata !68, i32 3, metadata !823, i1 false, i1 false, i32 0, i32 0, null, i32 256, i1 false, null, null, i32 0, metadata !76, i32 3} ; [ DW_TAG_subprogram ]
!823 = metadata !{i32 786453, i32 0, metadata !"", i32 0, i32 0, i64 0, i64 0, i64 0, i32 0, null, metadata !824, i32 0, i32 0} ; [ DW_TAG_subroutine_type ]
!824 = metadata !{null, metadata !825}
!825 = metadata !{i32 786447, i32 0, metadata !"", i32 0, i32 0, i64 64, i64 64, i64 0, i32 64, metadata !818} ; [ DW_TAG_pointer_type ]
!826 = metadata !{metadata !827, metadata !81}
!827 = metadata !{i32 786480, null, metadata !"_AP_N", metadata !80, i64 1, null, i32 0, i32 0} ; [ DW_TAG_template_value_parameter ]
!828 = metadata !{i32 786478, i32 0, metadata !815, metadata !"ap_int_base", metadata !"ap_int_base", metadata !"", metadata !64, i32 1439, metadata !829, i1 false, i1 false, i32 0, i32 0, null, i32 256, i1 false, null, null, i32 0, metadata !76, i32 1439} ; [ DW_TAG_subprogram ]
!829 = metadata !{i32 786453, i32 0, metadata !"", i32 0, i32 0, i64 0, i64 0, i64 0, i32 0, null, metadata !830, i32 0, i32 0} ; [ DW_TAG_subroutine_type ]
!830 = metadata !{null, metadata !831}
!831 = metadata !{i32 786447, i32 0, metadata !"", i32 0, i32 0, i64 64, i64 64, i64 0, i32 64, metadata !815} ; [ DW_TAG_pointer_type ]
!832 = metadata !{i32 786478, i32 0, metadata !815, metadata !"ap_int_base", metadata !"ap_int_base", metadata !"", metadata !64, i32 1461, metadata !833, i1 false, i1 false, i32 0, i32 0, null, i32 384, i1 false, null, null, i32 0, metadata !76, i32 1461} ; [ DW_TAG_subprogram ]
!833 = metadata !{i32 786453, i32 0, metadata !"", i32 0, i32 0, i64 0, i64 0, i64 0, i32 0, null, metadata !834, i32 0, i32 0} ; [ DW_TAG_subroutine_type ]
!834 = metadata !{null, metadata !831, metadata !82}
!835 = metadata !{i32 786478, i32 0, metadata !815, metadata !"ap_int_base", metadata !"ap_int_base", metadata !"", metadata !64, i32 1462, metadata !836, i1 false, i1 false, i32 0, i32 0, null, i32 384, i1 false, null, null, i32 0, metadata !76, i32 1462} ; [ DW_TAG_subprogram ]
!836 = metadata !{i32 786453, i32 0, metadata !"", i32 0, i32 0, i64 0, i64 0, i64 0, i32 0, null, metadata !837, i32 0, i32 0} ; [ DW_TAG_subroutine_type ]
!837 = metadata !{null, metadata !831, metadata !107}
!838 = metadata !{i32 786478, i32 0, metadata !815, metadata !"ap_int_base", metadata !"ap_int_base", metadata !"", metadata !64, i32 1463, metadata !839, i1 false, i1 false, i32 0, i32 0, null, i32 384, i1 false, null, null, i32 0, metadata !76, i32 1463} ; [ DW_TAG_subprogram ]
!839 = metadata !{i32 786453, i32 0, metadata !"", i32 0, i32 0, i64 0, i64 0, i64 0, i32 0, null, metadata !840, i32 0, i32 0} ; [ DW_TAG_subroutine_type ]
!840 = metadata !{null, metadata !831, metadata !111}
!841 = metadata !{i32 786478, i32 0, metadata !815, metadata !"ap_int_base", metadata !"ap_int_base", metadata !"", metadata !64, i32 1464, metadata !842, i1 false, i1 false, i32 0, i32 0, null, i32 384, i1 false, null, null, i32 0, metadata !76, i32 1464} ; [ DW_TAG_subprogram ]
!842 = metadata !{i32 786453, i32 0, metadata !"", i32 0, i32 0, i64 0, i64 0, i64 0, i32 0, null, metadata !843, i32 0, i32 0} ; [ DW_TAG_subroutine_type ]
!843 = metadata !{null, metadata !831, metadata !115}
!844 = metadata !{i32 786478, i32 0, metadata !815, metadata !"ap_int_base", metadata !"ap_int_base", metadata !"", metadata !64, i32 1465, metadata !845, i1 false, i1 false, i32 0, i32 0, null, i32 384, i1 false, null, null, i32 0, metadata !76, i32 1465} ; [ DW_TAG_subprogram ]
!845 = metadata !{i32 786453, i32 0, metadata !"", i32 0, i32 0, i64 0, i64 0, i64 0, i32 0, null, metadata !846, i32 0, i32 0} ; [ DW_TAG_subroutine_type ]
!846 = metadata !{null, metadata !831, metadata !119}
!847 = metadata !{i32 786478, i32 0, metadata !815, metadata !"ap_int_base", metadata !"ap_int_base", metadata !"", metadata !64, i32 1466, metadata !848, i1 false, i1 false, i32 0, i32 0, null, i32 384, i1 false, null, null, i32 0, metadata !76, i32 1466} ; [ DW_TAG_subprogram ]
!848 = metadata !{i32 786453, i32 0, metadata !"", i32 0, i32 0, i64 0, i64 0, i64 0, i32 0, null, metadata !849, i32 0, i32 0} ; [ DW_TAG_subroutine_type ]
!849 = metadata !{null, metadata !831, metadata !80}
!850 = metadata !{i32 786478, i32 0, metadata !815, metadata !"ap_int_base", metadata !"ap_int_base", metadata !"", metadata !64, i32 1467, metadata !851, i1 false, i1 false, i32 0, i32 0, null, i32 384, i1 false, null, null, i32 0, metadata !76, i32 1467} ; [ DW_TAG_subprogram ]
!851 = metadata !{i32 786453, i32 0, metadata !"", i32 0, i32 0, i64 0, i64 0, i64 0, i32 0, null, metadata !852, i32 0, i32 0} ; [ DW_TAG_subroutine_type ]
!852 = metadata !{null, metadata !831, metadata !126}
!853 = metadata !{i32 786478, i32 0, metadata !815, metadata !"ap_int_base", metadata !"ap_int_base", metadata !"", metadata !64, i32 1468, metadata !854, i1 false, i1 false, i32 0, i32 0, null, i32 384, i1 false, null, null, i32 0, metadata !76, i32 1468} ; [ DW_TAG_subprogram ]
!854 = metadata !{i32 786453, i32 0, metadata !"", i32 0, i32 0, i64 0, i64 0, i64 0, i32 0, null, metadata !855, i32 0, i32 0} ; [ DW_TAG_subroutine_type ]
!855 = metadata !{null, metadata !831, metadata !130}
!856 = metadata !{i32 786478, i32 0, metadata !815, metadata !"ap_int_base", metadata !"ap_int_base", metadata !"", metadata !64, i32 1469, metadata !857, i1 false, i1 false, i32 0, i32 0, null, i32 384, i1 false, null, null, i32 0, metadata !76, i32 1469} ; [ DW_TAG_subprogram ]
!857 = metadata !{i32 786453, i32 0, metadata !"", i32 0, i32 0, i64 0, i64 0, i64 0, i32 0, null, metadata !858, i32 0, i32 0} ; [ DW_TAG_subroutine_type ]
!858 = metadata !{null, metadata !831, metadata !134}
!859 = metadata !{i32 786478, i32 0, metadata !815, metadata !"ap_int_base", metadata !"ap_int_base", metadata !"", metadata !64, i32 1470, metadata !860, i1 false, i1 false, i32 0, i32 0, null, i32 384, i1 false, null, null, i32 0, metadata !76, i32 1470} ; [ DW_TAG_subprogram ]
!860 = metadata !{i32 786453, i32 0, metadata !"", i32 0, i32 0, i64 0, i64 0, i64 0, i32 0, null, metadata !861, i32 0, i32 0} ; [ DW_TAG_subroutine_type ]
!861 = metadata !{null, metadata !831, metadata !138}
!862 = metadata !{i32 786478, i32 0, metadata !815, metadata !"ap_int_base", metadata !"ap_int_base", metadata !"", metadata !64, i32 1471, metadata !863, i1 false, i1 false, i32 0, i32 0, null, i32 384, i1 false, null, null, i32 0, metadata !76, i32 1471} ; [ DW_TAG_subprogram ]
!863 = metadata !{i32 786453, i32 0, metadata !"", i32 0, i32 0, i64 0, i64 0, i64 0, i32 0, null, metadata !864, i32 0, i32 0} ; [ DW_TAG_subroutine_type ]
!864 = metadata !{null, metadata !831, metadata !143}
!865 = metadata !{i32 786478, i32 0, metadata !815, metadata !"ap_int_base", metadata !"ap_int_base", metadata !"", metadata !64, i32 1472, metadata !866, i1 false, i1 false, i32 0, i32 0, null, i32 384, i1 false, null, null, i32 0, metadata !76, i32 1472} ; [ DW_TAG_subprogram ]
!866 = metadata !{i32 786453, i32 0, metadata !"", i32 0, i32 0, i64 0, i64 0, i64 0, i32 0, null, metadata !867, i32 0, i32 0} ; [ DW_TAG_subroutine_type ]
!867 = metadata !{null, metadata !831, metadata !148}
!868 = metadata !{i32 786478, i32 0, metadata !815, metadata !"ap_int_base", metadata !"ap_int_base", metadata !"", metadata !64, i32 1473, metadata !869, i1 false, i1 false, i32 0, i32 0, null, i32 384, i1 false, null, null, i32 0, metadata !76, i32 1473} ; [ DW_TAG_subprogram ]
!869 = metadata !{i32 786453, i32 0, metadata !"", i32 0, i32 0, i64 0, i64 0, i64 0, i32 0, null, metadata !870, i32 0, i32 0} ; [ DW_TAG_subroutine_type ]
!870 = metadata !{null, metadata !831, metadata !153}
!871 = metadata !{i32 786478, i32 0, metadata !815, metadata !"ap_int_base", metadata !"ap_int_base", metadata !"", metadata !64, i32 1474, metadata !872, i1 false, i1 false, i32 0, i32 0, null, i32 384, i1 false, null, null, i32 0, metadata !76, i32 1474} ; [ DW_TAG_subprogram ]
!872 = metadata !{i32 786453, i32 0, metadata !"", i32 0, i32 0, i64 0, i64 0, i64 0, i32 0, null, metadata !873, i32 0, i32 0} ; [ DW_TAG_subroutine_type ]
!873 = metadata !{null, metadata !831, metadata !157}
!874 = metadata !{i32 786478, i32 0, metadata !815, metadata !"ap_int_base", metadata !"ap_int_base", metadata !"", metadata !64, i32 1501, metadata !875, i1 false, i1 false, i32 0, i32 0, null, i32 256, i1 false, null, null, i32 0, metadata !76, i32 1501} ; [ DW_TAG_subprogram ]
!875 = metadata !{i32 786453, i32 0, metadata !"", i32 0, i32 0, i64 0, i64 0, i64 0, i32 0, null, metadata !876, i32 0, i32 0} ; [ DW_TAG_subroutine_type ]
!876 = metadata !{null, metadata !831, metadata !161}
!877 = metadata !{i32 786478, i32 0, metadata !815, metadata !"ap_int_base", metadata !"ap_int_base", metadata !"", metadata !64, i32 1508, metadata !878, i1 false, i1 false, i32 0, i32 0, null, i32 256, i1 false, null, null, i32 0, metadata !76, i32 1508} ; [ DW_TAG_subprogram ]
!878 = metadata !{i32 786453, i32 0, metadata !"", i32 0, i32 0, i64 0, i64 0, i64 0, i32 0, null, metadata !879, i32 0, i32 0} ; [ DW_TAG_subroutine_type ]
!879 = metadata !{null, metadata !831, metadata !161, metadata !107}
!880 = metadata !{i32 786478, i32 0, metadata !815, metadata !"read", metadata !"read", metadata !"_ZNV11ap_int_baseILi1ELb0ELb1EE4readEv", metadata !64, i32 1529, metadata !881, i1 false, i1 false, i32 0, i32 0, null, i32 256, i1 false, null, null, i32 0, metadata !76, i32 1529} ; [ DW_TAG_subprogram ]
!881 = metadata !{i32 786453, i32 0, metadata !"", i32 0, i32 0, i64 0, i64 0, i64 0, i32 0, null, metadata !882, i32 0, i32 0} ; [ DW_TAG_subroutine_type ]
!882 = metadata !{metadata !815, metadata !883}
!883 = metadata !{i32 786447, i32 0, metadata !"", i32 0, i32 0, i64 64, i64 64, i64 0, i32 64, metadata !884} ; [ DW_TAG_pointer_type ]
!884 = metadata !{i32 786485, null, metadata !"", null, i32 0, i64 0, i64 0, i64 0, i32 0, metadata !815} ; [ DW_TAG_volatile_type ]
!885 = metadata !{i32 786478, i32 0, metadata !815, metadata !"write", metadata !"write", metadata !"_ZNV11ap_int_baseILi1ELb0ELb1EE5writeERKS0_", metadata !64, i32 1535, metadata !886, i1 false, i1 false, i32 0, i32 0, null, i32 256, i1 false, null, null, i32 0, metadata !76, i32 1535} ; [ DW_TAG_subprogram ]
!886 = metadata !{i32 786453, i32 0, metadata !"", i32 0, i32 0, i64 0, i64 0, i64 0, i32 0, null, metadata !887, i32 0, i32 0} ; [ DW_TAG_subroutine_type ]
!887 = metadata !{null, metadata !883, metadata !888}
!888 = metadata !{i32 786448, null, null, null, i32 0, i64 0, i64 0, i64 0, i32 0, metadata !889} ; [ DW_TAG_reference_type ]
!889 = metadata !{i32 786470, null, metadata !"", null, i32 0, i64 0, i64 0, i64 0, i32 0, metadata !815} ; [ DW_TAG_const_type ]
!890 = metadata !{i32 786478, i32 0, metadata !815, metadata !"operator=", metadata !"operator=", metadata !"_ZNV11ap_int_baseILi1ELb0ELb1EEaSERVKS0_", metadata !64, i32 1547, metadata !891, i1 false, i1 false, i32 0, i32 0, null, i32 256, i1 false, null, null, i32 0, metadata !76, i32 1547} ; [ DW_TAG_subprogram ]
!891 = metadata !{i32 786453, i32 0, metadata !"", i32 0, i32 0, i64 0, i64 0, i64 0, i32 0, null, metadata !892, i32 0, i32 0} ; [ DW_TAG_subroutine_type ]
!892 = metadata !{null, metadata !883, metadata !893}
!893 = metadata !{i32 786448, null, null, null, i32 0, i64 0, i64 0, i64 0, i32 0, metadata !894} ; [ DW_TAG_reference_type ]
!894 = metadata !{i32 786470, null, metadata !"", null, i32 0, i64 0, i64 0, i64 0, i32 0, metadata !884} ; [ DW_TAG_const_type ]
!895 = metadata !{i32 786478, i32 0, metadata !815, metadata !"operator=", metadata !"operator=", metadata !"_ZNV11ap_int_baseILi1ELb0ELb1EEaSERKS0_", metadata !64, i32 1556, metadata !886, i1 false, i1 false, i32 0, i32 0, null, i32 256, i1 false, null, null, i32 0, metadata !76, i32 1556} ; [ DW_TAG_subprogram ]
!896 = metadata !{i32 786478, i32 0, metadata !815, metadata !"operator=", metadata !"operator=", metadata !"_ZN11ap_int_baseILi1ELb0ELb1EEaSERVKS0_", metadata !64, i32 1579, metadata !897, i1 false, i1 false, i32 0, i32 0, null, i32 256, i1 false, null, null, i32 0, metadata !76, i32 1579} ; [ DW_TAG_subprogram ]
!897 = metadata !{i32 786453, i32 0, metadata !"", i32 0, i32 0, i64 0, i64 0, i64 0, i32 0, null, metadata !898, i32 0, i32 0} ; [ DW_TAG_subroutine_type ]
!898 = metadata !{metadata !899, metadata !831, metadata !893}
!899 = metadata !{i32 786448, null, null, null, i32 0, i64 0, i64 0, i64 0, i32 0, metadata !815} ; [ DW_TAG_reference_type ]
!900 = metadata !{i32 786478, i32 0, metadata !815, metadata !"operator=", metadata !"operator=", metadata !"_ZN11ap_int_baseILi1ELb0ELb1EEaSERKS0_", metadata !64, i32 1584, metadata !901, i1 false, i1 false, i32 0, i32 0, null, i32 256, i1 false, null, null, i32 0, metadata !76, i32 1584} ; [ DW_TAG_subprogram ]
!901 = metadata !{i32 786453, i32 0, metadata !"", i32 0, i32 0, i64 0, i64 0, i64 0, i32 0, null, metadata !902, i32 0, i32 0} ; [ DW_TAG_subroutine_type ]
!902 = metadata !{metadata !899, metadata !831, metadata !888}
!903 = metadata !{i32 786478, i32 0, metadata !815, metadata !"operator=", metadata !"operator=", metadata !"_ZN11ap_int_baseILi1ELb0ELb1EEaSEPKc", metadata !64, i32 1588, metadata !904, i1 false, i1 false, i32 0, i32 0, null, i32 256, i1 false, null, null, i32 0, metadata !76, i32 1588} ; [ DW_TAG_subprogram ]
!904 = metadata !{i32 786453, i32 0, metadata !"", i32 0, i32 0, i64 0, i64 0, i64 0, i32 0, null, metadata !905, i32 0, i32 0} ; [ DW_TAG_subroutine_type ]
!905 = metadata !{metadata !899, metadata !831, metadata !161}
!906 = metadata !{i32 786478, i32 0, metadata !815, metadata !"set", metadata !"set", metadata !"_ZN11ap_int_baseILi1ELb0ELb1EE3setEPKca", metadata !64, i32 1596, metadata !907, i1 false, i1 false, i32 0, i32 0, null, i32 256, i1 false, null, null, i32 0, metadata !76, i32 1596} ; [ DW_TAG_subprogram ]
!907 = metadata !{i32 786453, i32 0, metadata !"", i32 0, i32 0, i64 0, i64 0, i64 0, i32 0, null, metadata !908, i32 0, i32 0} ; [ DW_TAG_subroutine_type ]
!908 = metadata !{metadata !899, metadata !831, metadata !161, metadata !107}
!909 = metadata !{i32 786478, i32 0, metadata !815, metadata !"operator=", metadata !"operator=", metadata !"_ZN11ap_int_baseILi1ELb0ELb1EEaSEa", metadata !64, i32 1610, metadata !910, i1 false, i1 false, i32 0, i32 0, null, i32 256, i1 false, null, null, i32 0, metadata !76, i32 1610} ; [ DW_TAG_subprogram ]
!910 = metadata !{i32 786453, i32 0, metadata !"", i32 0, i32 0, i64 0, i64 0, i64 0, i32 0, null, metadata !911, i32 0, i32 0} ; [ DW_TAG_subroutine_type ]
!911 = metadata !{metadata !899, metadata !831, metadata !107}
!912 = metadata !{i32 786478, i32 0, metadata !815, metadata !"operator=", metadata !"operator=", metadata !"_ZN11ap_int_baseILi1ELb0ELb1EEaSEh", metadata !64, i32 1611, metadata !913, i1 false, i1 false, i32 0, i32 0, null, i32 256, i1 false, null, null, i32 0, metadata !76, i32 1611} ; [ DW_TAG_subprogram ]
!913 = metadata !{i32 786453, i32 0, metadata !"", i32 0, i32 0, i64 0, i64 0, i64 0, i32 0, null, metadata !914, i32 0, i32 0} ; [ DW_TAG_subroutine_type ]
!914 = metadata !{metadata !899, metadata !831, metadata !111}
!915 = metadata !{i32 786478, i32 0, metadata !815, metadata !"operator=", metadata !"operator=", metadata !"_ZN11ap_int_baseILi1ELb0ELb1EEaSEs", metadata !64, i32 1612, metadata !916, i1 false, i1 false, i32 0, i32 0, null, i32 256, i1 false, null, null, i32 0, metadata !76, i32 1612} ; [ DW_TAG_subprogram ]
!916 = metadata !{i32 786453, i32 0, metadata !"", i32 0, i32 0, i64 0, i64 0, i64 0, i32 0, null, metadata !917, i32 0, i32 0} ; [ DW_TAG_subroutine_type ]
!917 = metadata !{metadata !899, metadata !831, metadata !115}
!918 = metadata !{i32 786478, i32 0, metadata !815, metadata !"operator=", metadata !"operator=", metadata !"_ZN11ap_int_baseILi1ELb0ELb1EEaSEt", metadata !64, i32 1613, metadata !919, i1 false, i1 false, i32 0, i32 0, null, i32 256, i1 false, null, null, i32 0, metadata !76, i32 1613} ; [ DW_TAG_subprogram ]
!919 = metadata !{i32 786453, i32 0, metadata !"", i32 0, i32 0, i64 0, i64 0, i64 0, i32 0, null, metadata !920, i32 0, i32 0} ; [ DW_TAG_subroutine_type ]
!920 = metadata !{metadata !899, metadata !831, metadata !119}
!921 = metadata !{i32 786478, i32 0, metadata !815, metadata !"operator=", metadata !"operator=", metadata !"_ZN11ap_int_baseILi1ELb0ELb1EEaSEi", metadata !64, i32 1614, metadata !922, i1 false, i1 false, i32 0, i32 0, null, i32 256, i1 false, null, null, i32 0, metadata !76, i32 1614} ; [ DW_TAG_subprogram ]
!922 = metadata !{i32 786453, i32 0, metadata !"", i32 0, i32 0, i64 0, i64 0, i64 0, i32 0, null, metadata !923, i32 0, i32 0} ; [ DW_TAG_subroutine_type ]
!923 = metadata !{metadata !899, metadata !831, metadata !80}
!924 = metadata !{i32 786478, i32 0, metadata !815, metadata !"operator=", metadata !"operator=", metadata !"_ZN11ap_int_baseILi1ELb0ELb1EEaSEj", metadata !64, i32 1615, metadata !925, i1 false, i1 false, i32 0, i32 0, null, i32 256, i1 false, null, null, i32 0, metadata !76, i32 1615} ; [ DW_TAG_subprogram ]
!925 = metadata !{i32 786453, i32 0, metadata !"", i32 0, i32 0, i64 0, i64 0, i64 0, i32 0, null, metadata !926, i32 0, i32 0} ; [ DW_TAG_subroutine_type ]
!926 = metadata !{metadata !899, metadata !831, metadata !126}
!927 = metadata !{i32 786478, i32 0, metadata !815, metadata !"operator=", metadata !"operator=", metadata !"_ZN11ap_int_baseILi1ELb0ELb1EEaSEx", metadata !64, i32 1616, metadata !928, i1 false, i1 false, i32 0, i32 0, null, i32 256, i1 false, null, null, i32 0, metadata !76, i32 1616} ; [ DW_TAG_subprogram ]
!928 = metadata !{i32 786453, i32 0, metadata !"", i32 0, i32 0, i64 0, i64 0, i64 0, i32 0, null, metadata !929, i32 0, i32 0} ; [ DW_TAG_subroutine_type ]
!929 = metadata !{metadata !899, metadata !831, metadata !138}
!930 = metadata !{i32 786478, i32 0, metadata !815, metadata !"operator=", metadata !"operator=", metadata !"_ZN11ap_int_baseILi1ELb0ELb1EEaSEy", metadata !64, i32 1617, metadata !931, i1 false, i1 false, i32 0, i32 0, null, i32 256, i1 false, null, null, i32 0, metadata !76, i32 1617} ; [ DW_TAG_subprogram ]
!931 = metadata !{i32 786453, i32 0, metadata !"", i32 0, i32 0, i64 0, i64 0, i64 0, i32 0, null, metadata !932, i32 0, i32 0} ; [ DW_TAG_subroutine_type ]
!932 = metadata !{metadata !899, metadata !831, metadata !143}
!933 = metadata !{i32 786478, i32 0, metadata !815, metadata !"operator unsigned char", metadata !"operator unsigned char", metadata !"_ZNK11ap_int_baseILi1ELb0ELb1EEcvhEv", metadata !64, i32 1655, metadata !934, i1 false, i1 false, i32 0, i32 0, null, i32 256, i1 false, null, null, i32 0, metadata !76, i32 1655} ; [ DW_TAG_subprogram ]
!934 = metadata !{i32 786453, i32 0, metadata !"", i32 0, i32 0, i64 0, i64 0, i64 0, i32 0, null, metadata !935, i32 0, i32 0} ; [ DW_TAG_subroutine_type ]
!935 = metadata !{metadata !936, metadata !939}
!936 = metadata !{i32 786454, metadata !815, metadata !"RetType", metadata !64, i32 1403, i64 0, i64 0, i64 0, i32 0, metadata !937} ; [ DW_TAG_typedef ]
!937 = metadata !{i32 786454, metadata !938, metadata !"Type", metadata !64, i32 1371, i64 0, i64 0, i64 0, i32 0, metadata !111} ; [ DW_TAG_typedef ]
!938 = metadata !{i32 786434, null, metadata !"retval<1, false>", metadata !64, i32 1370, i64 8, i64 8, i32 0, i32 0, null, metadata !221, i32 0, null, metadata !826} ; [ DW_TAG_class_type ]
!939 = metadata !{i32 786447, i32 0, metadata !"", i32 0, i32 0, i64 64, i64 64, i64 0, i32 64, metadata !889} ; [ DW_TAG_pointer_type ]
!940 = metadata !{i32 786478, i32 0, metadata !815, metadata !"to_bool", metadata !"to_bool", metadata !"_ZNK11ap_int_baseILi1ELb0ELb1EE7to_boolEv", metadata !64, i32 1661, metadata !941, i1 false, i1 false, i32 0, i32 0, null, i32 256, i1 false, null, null, i32 0, metadata !76, i32 1661} ; [ DW_TAG_subprogram ]
!941 = metadata !{i32 786453, i32 0, metadata !"", i32 0, i32 0, i64 0, i64 0, i64 0, i32 0, null, metadata !942, i32 0, i32 0} ; [ DW_TAG_subroutine_type ]
!942 = metadata !{metadata !82, metadata !939}
!943 = metadata !{i32 786478, i32 0, metadata !815, metadata !"to_uchar", metadata !"to_uchar", metadata !"_ZNK11ap_int_baseILi1ELb0ELb1EE8to_ucharEv", metadata !64, i32 1662, metadata !944, i1 false, i1 false, i32 0, i32 0, null, i32 256, i1 false, null, null, i32 0, metadata !76, i32 1662} ; [ DW_TAG_subprogram ]
!944 = metadata !{i32 786453, i32 0, metadata !"", i32 0, i32 0, i64 0, i64 0, i64 0, i32 0, null, metadata !945, i32 0, i32 0} ; [ DW_TAG_subroutine_type ]
!945 = metadata !{metadata !111, metadata !939}
!946 = metadata !{i32 786478, i32 0, metadata !815, metadata !"to_char", metadata !"to_char", metadata !"_ZNK11ap_int_baseILi1ELb0ELb1EE7to_charEv", metadata !64, i32 1663, metadata !947, i1 false, i1 false, i32 0, i32 0, null, i32 256, i1 false, null, null, i32 0, metadata !76, i32 1663} ; [ DW_TAG_subprogram ]
!947 = metadata !{i32 786453, i32 0, metadata !"", i32 0, i32 0, i64 0, i64 0, i64 0, i32 0, null, metadata !948, i32 0, i32 0} ; [ DW_TAG_subroutine_type ]
!948 = metadata !{metadata !107, metadata !939}
!949 = metadata !{i32 786478, i32 0, metadata !815, metadata !"to_ushort", metadata !"to_ushort", metadata !"_ZNK11ap_int_baseILi1ELb0ELb1EE9to_ushortEv", metadata !64, i32 1664, metadata !950, i1 false, i1 false, i32 0, i32 0, null, i32 256, i1 false, null, null, i32 0, metadata !76, i32 1664} ; [ DW_TAG_subprogram ]
!950 = metadata !{i32 786453, i32 0, metadata !"", i32 0, i32 0, i64 0, i64 0, i64 0, i32 0, null, metadata !951, i32 0, i32 0} ; [ DW_TAG_subroutine_type ]
!951 = metadata !{metadata !119, metadata !939}
!952 = metadata !{i32 786478, i32 0, metadata !815, metadata !"to_short", metadata !"to_short", metadata !"_ZNK11ap_int_baseILi1ELb0ELb1EE8to_shortEv", metadata !64, i32 1665, metadata !953, i1 false, i1 false, i32 0, i32 0, null, i32 256, i1 false, null, null, i32 0, metadata !76, i32 1665} ; [ DW_TAG_subprogram ]
!953 = metadata !{i32 786453, i32 0, metadata !"", i32 0, i32 0, i64 0, i64 0, i64 0, i32 0, null, metadata !954, i32 0, i32 0} ; [ DW_TAG_subroutine_type ]
!954 = metadata !{metadata !115, metadata !939}
!955 = metadata !{i32 786478, i32 0, metadata !815, metadata !"to_int", metadata !"to_int", metadata !"_ZNK11ap_int_baseILi1ELb0ELb1EE6to_intEv", metadata !64, i32 1666, metadata !956, i1 false, i1 false, i32 0, i32 0, null, i32 256, i1 false, null, null, i32 0, metadata !76, i32 1666} ; [ DW_TAG_subprogram ]
!956 = metadata !{i32 786453, i32 0, metadata !"", i32 0, i32 0, i64 0, i64 0, i64 0, i32 0, null, metadata !957, i32 0, i32 0} ; [ DW_TAG_subroutine_type ]
!957 = metadata !{metadata !80, metadata !939}
!958 = metadata !{i32 786478, i32 0, metadata !815, metadata !"to_uint", metadata !"to_uint", metadata !"_ZNK11ap_int_baseILi1ELb0ELb1EE7to_uintEv", metadata !64, i32 1667, metadata !959, i1 false, i1 false, i32 0, i32 0, null, i32 256, i1 false, null, null, i32 0, metadata !76, i32 1667} ; [ DW_TAG_subprogram ]
!959 = metadata !{i32 786453, i32 0, metadata !"", i32 0, i32 0, i64 0, i64 0, i64 0, i32 0, null, metadata !960, i32 0, i32 0} ; [ DW_TAG_subroutine_type ]
!960 = metadata !{metadata !126, metadata !939}
!961 = metadata !{i32 786478, i32 0, metadata !815, metadata !"to_long", metadata !"to_long", metadata !"_ZNK11ap_int_baseILi1ELb0ELb1EE7to_longEv", metadata !64, i32 1668, metadata !962, i1 false, i1 false, i32 0, i32 0, null, i32 256, i1 false, null, null, i32 0, metadata !76, i32 1668} ; [ DW_TAG_subprogram ]
!962 = metadata !{i32 786453, i32 0, metadata !"", i32 0, i32 0, i64 0, i64 0, i64 0, i32 0, null, metadata !963, i32 0, i32 0} ; [ DW_TAG_subroutine_type ]
!963 = metadata !{metadata !130, metadata !939}
!964 = metadata !{i32 786478, i32 0, metadata !815, metadata !"to_ulong", metadata !"to_ulong", metadata !"_ZNK11ap_int_baseILi1ELb0ELb1EE8to_ulongEv", metadata !64, i32 1669, metadata !965, i1 false, i1 false, i32 0, i32 0, null, i32 256, i1 false, null, null, i32 0, metadata !76, i32 1669} ; [ DW_TAG_subprogram ]
!965 = metadata !{i32 786453, i32 0, metadata !"", i32 0, i32 0, i64 0, i64 0, i64 0, i32 0, null, metadata !966, i32 0, i32 0} ; [ DW_TAG_subroutine_type ]
!966 = metadata !{metadata !134, metadata !939}
!967 = metadata !{i32 786478, i32 0, metadata !815, metadata !"to_int64", metadata !"to_int64", metadata !"_ZNK11ap_int_baseILi1ELb0ELb1EE8to_int64Ev", metadata !64, i32 1670, metadata !968, i1 false, i1 false, i32 0, i32 0, null, i32 256, i1 false, null, null, i32 0, metadata !76, i32 1670} ; [ DW_TAG_subprogram ]
!968 = metadata !{i32 786453, i32 0, metadata !"", i32 0, i32 0, i64 0, i64 0, i64 0, i32 0, null, metadata !969, i32 0, i32 0} ; [ DW_TAG_subroutine_type ]
!969 = metadata !{metadata !138, metadata !939}
!970 = metadata !{i32 786478, i32 0, metadata !815, metadata !"to_uint64", metadata !"to_uint64", metadata !"_ZNK11ap_int_baseILi1ELb0ELb1EE9to_uint64Ev", metadata !64, i32 1671, metadata !971, i1 false, i1 false, i32 0, i32 0, null, i32 256, i1 false, null, null, i32 0, metadata !76, i32 1671} ; [ DW_TAG_subprogram ]
!971 = metadata !{i32 786453, i32 0, metadata !"", i32 0, i32 0, i64 0, i64 0, i64 0, i32 0, null, metadata !972, i32 0, i32 0} ; [ DW_TAG_subroutine_type ]
!972 = metadata !{metadata !143, metadata !939}
!973 = metadata !{i32 786478, i32 0, metadata !815, metadata !"to_double", metadata !"to_double", metadata !"_ZNK11ap_int_baseILi1ELb0ELb1EE9to_doubleEv", metadata !64, i32 1672, metadata !974, i1 false, i1 false, i32 0, i32 0, null, i32 256, i1 false, null, null, i32 0, metadata !76, i32 1672} ; [ DW_TAG_subprogram ]
!974 = metadata !{i32 786453, i32 0, metadata !"", i32 0, i32 0, i64 0, i64 0, i64 0, i32 0, null, metadata !975, i32 0, i32 0} ; [ DW_TAG_subroutine_type ]
!975 = metadata !{metadata !157, metadata !939}
!976 = metadata !{i32 786478, i32 0, metadata !815, metadata !"length", metadata !"length", metadata !"_ZNK11ap_int_baseILi1ELb0ELb1EE6lengthEv", metadata !64, i32 1686, metadata !956, i1 false, i1 false, i32 0, i32 0, null, i32 256, i1 false, null, null, i32 0, metadata !76, i32 1686} ; [ DW_TAG_subprogram ]
!977 = metadata !{i32 786478, i32 0, metadata !815, metadata !"length", metadata !"length", metadata !"_ZNVK11ap_int_baseILi1ELb0ELb1EE6lengthEv", metadata !64, i32 1687, metadata !978, i1 false, i1 false, i32 0, i32 0, null, i32 256, i1 false, null, null, i32 0, metadata !76, i32 1687} ; [ DW_TAG_subprogram ]
!978 = metadata !{i32 786453, i32 0, metadata !"", i32 0, i32 0, i64 0, i64 0, i64 0, i32 0, null, metadata !979, i32 0, i32 0} ; [ DW_TAG_subroutine_type ]
!979 = metadata !{metadata !80, metadata !980}
!980 = metadata !{i32 786447, i32 0, metadata !"", i32 0, i32 0, i64 64, i64 64, i64 0, i32 64, metadata !894} ; [ DW_TAG_pointer_type ]
!981 = metadata !{i32 786478, i32 0, metadata !815, metadata !"reverse", metadata !"reverse", metadata !"_ZN11ap_int_baseILi1ELb0ELb1EE7reverseEv", metadata !64, i32 1692, metadata !982, i1 false, i1 false, i32 0, i32 0, null, i32 256, i1 false, null, null, i32 0, metadata !76, i32 1692} ; [ DW_TAG_subprogram ]
!982 = metadata !{i32 786453, i32 0, metadata !"", i32 0, i32 0, i64 0, i64 0, i64 0, i32 0, null, metadata !983, i32 0, i32 0} ; [ DW_TAG_subroutine_type ]
!983 = metadata !{metadata !899, metadata !831}
!984 = metadata !{i32 786478, i32 0, metadata !815, metadata !"iszero", metadata !"iszero", metadata !"_ZNK11ap_int_baseILi1ELb0ELb1EE6iszeroEv", metadata !64, i32 1698, metadata !941, i1 false, i1 false, i32 0, i32 0, null, i32 256, i1 false, null, null, i32 0, metadata !76, i32 1698} ; [ DW_TAG_subprogram ]
!985 = metadata !{i32 786478, i32 0, metadata !815, metadata !"is_zero", metadata !"is_zero", metadata !"_ZNK11ap_int_baseILi1ELb0ELb1EE7is_zeroEv", metadata !64, i32 1703, metadata !941, i1 false, i1 false, i32 0, i32 0, null, i32 256, i1 false, null, null, i32 0, metadata !76, i32 1703} ; [ DW_TAG_subprogram ]
!986 = metadata !{i32 786478, i32 0, metadata !815, metadata !"sign", metadata !"sign", metadata !"_ZNK11ap_int_baseILi1ELb0ELb1EE4signEv", metadata !64, i32 1708, metadata !941, i1 false, i1 false, i32 0, i32 0, null, i32 256, i1 false, null, null, i32 0, metadata !76, i32 1708} ; [ DW_TAG_subprogram ]
!987 = metadata !{i32 786478, i32 0, metadata !815, metadata !"clear", metadata !"clear", metadata !"_ZN11ap_int_baseILi1ELb0ELb1EE5clearEi", metadata !64, i32 1716, metadata !848, i1 false, i1 false, i32 0, i32 0, null, i32 256, i1 false, null, null, i32 0, metadata !76, i32 1716} ; [ DW_TAG_subprogram ]
!988 = metadata !{i32 786478, i32 0, metadata !815, metadata !"invert", metadata !"invert", metadata !"_ZN11ap_int_baseILi1ELb0ELb1EE6invertEi", metadata !64, i32 1722, metadata !848, i1 false, i1 false, i32 0, i32 0, null, i32 256, i1 false, null, null, i32 0, metadata !76, i32 1722} ; [ DW_TAG_subprogram ]
!989 = metadata !{i32 786478, i32 0, metadata !815, metadata !"test", metadata !"test", metadata !"_ZNK11ap_int_baseILi1ELb0ELb1EE4testEi", metadata !64, i32 1730, metadata !990, i1 false, i1 false, i32 0, i32 0, null, i32 256, i1 false, null, null, i32 0, metadata !76, i32 1730} ; [ DW_TAG_subprogram ]
!990 = metadata !{i32 786453, i32 0, metadata !"", i32 0, i32 0, i64 0, i64 0, i64 0, i32 0, null, metadata !991, i32 0, i32 0} ; [ DW_TAG_subroutine_type ]
!991 = metadata !{metadata !82, metadata !939, metadata !80}
!992 = metadata !{i32 786478, i32 0, metadata !815, metadata !"set", metadata !"set", metadata !"_ZN11ap_int_baseILi1ELb0ELb1EE3setEi", metadata !64, i32 1736, metadata !848, i1 false, i1 false, i32 0, i32 0, null, i32 256, i1 false, null, null, i32 0, metadata !76, i32 1736} ; [ DW_TAG_subprogram ]
!993 = metadata !{i32 786478, i32 0, metadata !815, metadata !"set", metadata !"set", metadata !"_ZN11ap_int_baseILi1ELb0ELb1EE3setEib", metadata !64, i32 1742, metadata !994, i1 false, i1 false, i32 0, i32 0, null, i32 256, i1 false, null, null, i32 0, metadata !76, i32 1742} ; [ DW_TAG_subprogram ]
!994 = metadata !{i32 786453, i32 0, metadata !"", i32 0, i32 0, i64 0, i64 0, i64 0, i32 0, null, metadata !995, i32 0, i32 0} ; [ DW_TAG_subroutine_type ]
!995 = metadata !{null, metadata !831, metadata !80, metadata !82}
!996 = metadata !{i32 786478, i32 0, metadata !815, metadata !"lrotate", metadata !"lrotate", metadata !"_ZN11ap_int_baseILi1ELb0ELb1EE7lrotateEi", metadata !64, i32 1749, metadata !848, i1 false, i1 false, i32 0, i32 0, null, i32 256, i1 false, null, null, i32 0, metadata !76, i32 1749} ; [ DW_TAG_subprogram ]
!997 = metadata !{i32 786478, i32 0, metadata !815, metadata !"rrotate", metadata !"rrotate", metadata !"_ZN11ap_int_baseILi1ELb0ELb1EE7rrotateEi", metadata !64, i32 1758, metadata !848, i1 false, i1 false, i32 0, i32 0, null, i32 256, i1 false, null, null, i32 0, metadata !76, i32 1758} ; [ DW_TAG_subprogram ]
!998 = metadata !{i32 786478, i32 0, metadata !815, metadata !"set_bit", metadata !"set_bit", metadata !"_ZN11ap_int_baseILi1ELb0ELb1EE7set_bitEib", metadata !64, i32 1766, metadata !994, i1 false, i1 false, i32 0, i32 0, null, i32 256, i1 false, null, null, i32 0, metadata !76, i32 1766} ; [ DW_TAG_subprogram ]
!999 = metadata !{i32 786478, i32 0, metadata !815, metadata !"get_bit", metadata !"get_bit", metadata !"_ZNK11ap_int_baseILi1ELb0ELb1EE7get_bitEi", metadata !64, i32 1771, metadata !990, i1 false, i1 false, i32 0, i32 0, null, i32 256, i1 false, null, null, i32 0, metadata !76, i32 1771} ; [ DW_TAG_subprogram ]
!1000 = metadata !{i32 786478, i32 0, metadata !815, metadata !"b_not", metadata !"b_not", metadata !"_ZN11ap_int_baseILi1ELb0ELb1EE5b_notEv", metadata !64, i32 1776, metadata !829, i1 false, i1 false, i32 0, i32 0, null, i32 256, i1 false, null, null, i32 0, metadata !76, i32 1776} ; [ DW_TAG_subprogram ]
!1001 = metadata !{i32 786478, i32 0, metadata !815, metadata !"countLeadingZeros", metadata !"countLeadingZeros", metadata !"_ZN11ap_int_baseILi1ELb0ELb1EE17countLeadingZerosEv", metadata !64, i32 1783, metadata !1002, i1 false, i1 false, i32 0, i32 0, null, i32 256, i1 false, null, null, i32 0, metadata !76, i32 1783} ; [ DW_TAG_subprogram ]
!1002 = metadata !{i32 786453, i32 0, metadata !"", i32 0, i32 0, i64 0, i64 0, i64 0, i32 0, null, metadata !1003, i32 0, i32 0} ; [ DW_TAG_subroutine_type ]
!1003 = metadata !{metadata !80, metadata !831}
!1004 = metadata !{i32 786478, i32 0, metadata !815, metadata !"operator++", metadata !"operator++", metadata !"_ZN11ap_int_baseILi1ELb0ELb1EEppEv", metadata !64, i32 1840, metadata !982, i1 false, i1 false, i32 0, i32 0, null, i32 256, i1 false, null, null, i32 0, metadata !76, i32 1840} ; [ DW_TAG_subprogram ]
!1005 = metadata !{i32 786478, i32 0, metadata !815, metadata !"operator--", metadata !"operator--", metadata !"_ZN11ap_int_baseILi1ELb0ELb1EEmmEv", metadata !64, i32 1844, metadata !982, i1 false, i1 false, i32 0, i32 0, null, i32 256, i1 false, null, null, i32 0, metadata !76, i32 1844} ; [ DW_TAG_subprogram ]
!1006 = metadata !{i32 786478, i32 0, metadata !815, metadata !"operator++", metadata !"operator++", metadata !"_ZN11ap_int_baseILi1ELb0ELb1EEppEi", metadata !64, i32 1852, metadata !1007, i1 false, i1 false, i32 0, i32 0, null, i32 256, i1 false, null, null, i32 0, metadata !76, i32 1852} ; [ DW_TAG_subprogram ]
!1007 = metadata !{i32 786453, i32 0, metadata !"", i32 0, i32 0, i64 0, i64 0, i64 0, i32 0, null, metadata !1008, i32 0, i32 0} ; [ DW_TAG_subroutine_type ]
!1008 = metadata !{metadata !889, metadata !831, metadata !80}
!1009 = metadata !{i32 786478, i32 0, metadata !815, metadata !"operator--", metadata !"operator--", metadata !"_ZN11ap_int_baseILi1ELb0ELb1EEmmEi", metadata !64, i32 1857, metadata !1007, i1 false, i1 false, i32 0, i32 0, null, i32 256, i1 false, null, null, i32 0, metadata !76, i32 1857} ; [ DW_TAG_subprogram ]
!1010 = metadata !{i32 786478, i32 0, metadata !815, metadata !"operator+", metadata !"operator+", metadata !"_ZNK11ap_int_baseILi1ELb0ELb1EEpsEv", metadata !64, i32 1866, metadata !1011, i1 false, i1 false, i32 0, i32 0, null, i32 256, i1 false, null, null, i32 0, metadata !76, i32 1866} ; [ DW_TAG_subprogram ]
!1011 = metadata !{i32 786453, i32 0, metadata !"", i32 0, i32 0, i64 0, i64 0, i64 0, i32 0, null, metadata !1012, i32 0, i32 0} ; [ DW_TAG_subroutine_type ]
!1012 = metadata !{metadata !815, metadata !939}
!1013 = metadata !{i32 786478, i32 0, metadata !815, metadata !"operator!", metadata !"operator!", metadata !"_ZNK11ap_int_baseILi1ELb0ELb1EEntEv", metadata !64, i32 1872, metadata !941, i1 false, i1 false, i32 0, i32 0, null, i32 256, i1 false, null, null, i32 0, metadata !76, i32 1872} ; [ DW_TAG_subprogram ]
!1014 = metadata !{i32 786478, i32 0, metadata !815, metadata !"operator-", metadata !"operator-", metadata !"_ZNK11ap_int_baseILi1ELb0ELb1EEngEv", metadata !64, i32 1877, metadata !1015, i1 false, i1 false, i32 0, i32 0, null, i32 256, i1 false, null, null, i32 0, metadata !76, i32 1877} ; [ DW_TAG_subprogram ]
!1015 = metadata !{i32 786453, i32 0, metadata !"", i32 0, i32 0, i64 0, i64 0, i64 0, i32 0, null, metadata !1016, i32 0, i32 0} ; [ DW_TAG_subroutine_type ]
!1016 = metadata !{metadata !1017, metadata !939}
!1017 = metadata !{i32 786434, null, metadata !"ap_int_base<2, true, true>", metadata !64, i32 651, i32 0, i32 0, i32 0, i32 4, null, null, i32 0} ; [ DW_TAG_class_type ]
!1018 = metadata !{i32 786478, i32 0, metadata !815, metadata !"range", metadata !"range", metadata !"_ZN11ap_int_baseILi1ELb0ELb1EE5rangeEii", metadata !64, i32 2007, metadata !1019, i1 false, i1 false, i32 0, i32 0, null, i32 256, i1 false, null, null, i32 0, metadata !76, i32 2007} ; [ DW_TAG_subprogram ]
!1019 = metadata !{i32 786453, i32 0, metadata !"", i32 0, i32 0, i64 0, i64 0, i64 0, i32 0, null, metadata !1020, i32 0, i32 0} ; [ DW_TAG_subroutine_type ]
!1020 = metadata !{metadata !1021, metadata !831, metadata !80, metadata !80}
!1021 = metadata !{i32 786434, null, metadata !"ap_range_ref<1, false>", metadata !64, i32 924, i32 0, i32 0, i32 0, i32 4, null, null, i32 0} ; [ DW_TAG_class_type ]
!1022 = metadata !{i32 786478, i32 0, metadata !815, metadata !"operator()", metadata !"operator()", metadata !"_ZN11ap_int_baseILi1ELb0ELb1EEclEii", metadata !64, i32 2013, metadata !1019, i1 false, i1 false, i32 0, i32 0, null, i32 256, i1 false, null, null, i32 0, metadata !76, i32 2013} ; [ DW_TAG_subprogram ]
!1023 = metadata !{i32 786478, i32 0, metadata !815, metadata !"range", metadata !"range", metadata !"_ZNK11ap_int_baseILi1ELb0ELb1EE5rangeEii", metadata !64, i32 2019, metadata !1024, i1 false, i1 false, i32 0, i32 0, null, i32 256, i1 false, null, null, i32 0, metadata !76, i32 2019} ; [ DW_TAG_subprogram ]
!1024 = metadata !{i32 786453, i32 0, metadata !"", i32 0, i32 0, i64 0, i64 0, i64 0, i32 0, null, metadata !1025, i32 0, i32 0} ; [ DW_TAG_subroutine_type ]
!1025 = metadata !{metadata !1021, metadata !939, metadata !80, metadata !80}
!1026 = metadata !{i32 786478, i32 0, metadata !815, metadata !"operator()", metadata !"operator()", metadata !"_ZNK11ap_int_baseILi1ELb0ELb1EEclEii", metadata !64, i32 2025, metadata !1024, i1 false, i1 false, i32 0, i32 0, null, i32 256, i1 false, null, null, i32 0, metadata !76, i32 2025} ; [ DW_TAG_subprogram ]
!1027 = metadata !{i32 786478, i32 0, metadata !815, metadata !"operator[]", metadata !"operator[]", metadata !"_ZN11ap_int_baseILi1ELb0ELb1EEixEi", metadata !64, i32 2044, metadata !1028, i1 false, i1 false, i32 0, i32 0, null, i32 256, i1 false, null, null, i32 0, metadata !76, i32 2044} ; [ DW_TAG_subprogram ]
!1028 = metadata !{i32 786453, i32 0, metadata !"", i32 0, i32 0, i64 0, i64 0, i64 0, i32 0, null, metadata !1029, i32 0, i32 0} ; [ DW_TAG_subroutine_type ]
!1029 = metadata !{metadata !1030, metadata !831, metadata !80}
!1030 = metadata !{i32 786434, null, metadata !"ap_bit_ref<1, false>", metadata !64, i32 1194, i32 0, i32 0, i32 0, i32 4, null, null, i32 0} ; [ DW_TAG_class_type ]
!1031 = metadata !{i32 786478, i32 0, metadata !815, metadata !"operator[]", metadata !"operator[]", metadata !"_ZNK11ap_int_baseILi1ELb0ELb1EEixEi", metadata !64, i32 2058, metadata !990, i1 false, i1 false, i32 0, i32 0, null, i32 256, i1 false, null, null, i32 0, metadata !76, i32 2058} ; [ DW_TAG_subprogram ]
!1032 = metadata !{i32 786478, i32 0, metadata !815, metadata !"bit", metadata !"bit", metadata !"_ZN11ap_int_baseILi1ELb0ELb1EE3bitEi", metadata !64, i32 2072, metadata !1028, i1 false, i1 false, i32 0, i32 0, null, i32 256, i1 false, null, null, i32 0, metadata !76, i32 2072} ; [ DW_TAG_subprogram ]
!1033 = metadata !{i32 786478, i32 0, metadata !815, metadata !"bit", metadata !"bit", metadata !"_ZNK11ap_int_baseILi1ELb0ELb1EE3bitEi", metadata !64, i32 2086, metadata !990, i1 false, i1 false, i32 0, i32 0, null, i32 256, i1 false, null, null, i32 0, metadata !76, i32 2086} ; [ DW_TAG_subprogram ]
!1034 = metadata !{i32 786478, i32 0, metadata !815, metadata !"and_reduce", metadata !"and_reduce", metadata !"_ZN11ap_int_baseILi1ELb0ELb1EE10and_reduceEv", metadata !64, i32 2266, metadata !1035, i1 false, i1 false, i32 0, i32 0, null, i32 256, i1 false, null, null, i32 0, metadata !76, i32 2266} ; [ DW_TAG_subprogram ]
!1035 = metadata !{i32 786453, i32 0, metadata !"", i32 0, i32 0, i64 0, i64 0, i64 0, i32 0, null, metadata !1036, i32 0, i32 0} ; [ DW_TAG_subroutine_type ]
!1036 = metadata !{metadata !82, metadata !831}
!1037 = metadata !{i32 786478, i32 0, metadata !815, metadata !"nand_reduce", metadata !"nand_reduce", metadata !"_ZN11ap_int_baseILi1ELb0ELb1EE11nand_reduceEv", metadata !64, i32 2269, metadata !1035, i1 false, i1 false, i32 0, i32 0, null, i32 256, i1 false, null, null, i32 0, metadata !76, i32 2269} ; [ DW_TAG_subprogram ]
!1038 = metadata !{i32 786478, i32 0, metadata !815, metadata !"or_reduce", metadata !"or_reduce", metadata !"_ZN11ap_int_baseILi1ELb0ELb1EE9or_reduceEv", metadata !64, i32 2272, metadata !1035, i1 false, i1 false, i32 0, i32 0, null, i32 256, i1 false, null, null, i32 0, metadata !76, i32 2272} ; [ DW_TAG_subprogram ]
!1039 = metadata !{i32 786478, i32 0, metadata !815, metadata !"nor_reduce", metadata !"nor_reduce", metadata !"_ZN11ap_int_baseILi1ELb0ELb1EE10nor_reduceEv", metadata !64, i32 2275, metadata !1035, i1 false, i1 false, i32 0, i32 0, null, i32 256, i1 false, null, null, i32 0, metadata !76, i32 2275} ; [ DW_TAG_subprogram ]
!1040 = metadata !{i32 786478, i32 0, metadata !815, metadata !"xor_reduce", metadata !"xor_reduce", metadata !"_ZN11ap_int_baseILi1ELb0ELb1EE10xor_reduceEv", metadata !64, i32 2278, metadata !1035, i1 false, i1 false, i32 0, i32 0, null, i32 256, i1 false, null, null, i32 0, metadata !76, i32 2278} ; [ DW_TAG_subprogram ]
!1041 = metadata !{i32 786478, i32 0, metadata !815, metadata !"xnor_reduce", metadata !"xnor_reduce", metadata !"_ZN11ap_int_baseILi1ELb0ELb1EE11xnor_reduceEv", metadata !64, i32 2281, metadata !1035, i1 false, i1 false, i32 0, i32 0, null, i32 256, i1 false, null, null, i32 0, metadata !76, i32 2281} ; [ DW_TAG_subprogram ]
!1042 = metadata !{i32 786478, i32 0, metadata !815, metadata !"and_reduce", metadata !"and_reduce", metadata !"_ZNK11ap_int_baseILi1ELb0ELb1EE10and_reduceEv", metadata !64, i32 2285, metadata !941, i1 false, i1 false, i32 0, i32 0, null, i32 256, i1 false, null, null, i32 0, metadata !76, i32 2285} ; [ DW_TAG_subprogram ]
!1043 = metadata !{i32 786478, i32 0, metadata !815, metadata !"nand_reduce", metadata !"nand_reduce", metadata !"_ZNK11ap_int_baseILi1ELb0ELb1EE11nand_reduceEv", metadata !64, i32 2288, metadata !941, i1 false, i1 false, i32 0, i32 0, null, i32 256, i1 false, null, null, i32 0, metadata !76, i32 2288} ; [ DW_TAG_subprogram ]
!1044 = metadata !{i32 786478, i32 0, metadata !815, metadata !"or_reduce", metadata !"or_reduce", metadata !"_ZNK11ap_int_baseILi1ELb0ELb1EE9or_reduceEv", metadata !64, i32 2291, metadata !941, i1 false, i1 false, i32 0, i32 0, null, i32 256, i1 false, null, null, i32 0, metadata !76, i32 2291} ; [ DW_TAG_subprogram ]
!1045 = metadata !{i32 786478, i32 0, metadata !815, metadata !"nor_reduce", metadata !"nor_reduce", metadata !"_ZNK11ap_int_baseILi1ELb0ELb1EE10nor_reduceEv", metadata !64, i32 2294, metadata !941, i1 false, i1 false, i32 0, i32 0, null, i32 256, i1 false, null, null, i32 0, metadata !76, i32 2294} ; [ DW_TAG_subprogram ]
!1046 = metadata !{i32 786478, i32 0, metadata !815, metadata !"xor_reduce", metadata !"xor_reduce", metadata !"_ZNK11ap_int_baseILi1ELb0ELb1EE10xor_reduceEv", metadata !64, i32 2297, metadata !941, i1 false, i1 false, i32 0, i32 0, null, i32 256, i1 false, null, null, i32 0, metadata !76, i32 2297} ; [ DW_TAG_subprogram ]
!1047 = metadata !{i32 786478, i32 0, metadata !815, metadata !"xnor_reduce", metadata !"xnor_reduce", metadata !"_ZNK11ap_int_baseILi1ELb0ELb1EE11xnor_reduceEv", metadata !64, i32 2300, metadata !941, i1 false, i1 false, i32 0, i32 0, null, i32 256, i1 false, null, null, i32 0, metadata !76, i32 2300} ; [ DW_TAG_subprogram ]
!1048 = metadata !{i32 786478, i32 0, metadata !815, metadata !"to_string", metadata !"to_string", metadata !"_ZNK11ap_int_baseILi1ELb0ELb1EE9to_stringEPci8BaseModeb", metadata !64, i32 2307, metadata !1049, i1 false, i1 false, i32 0, i32 0, null, i32 256, i1 false, null, null, i32 0, metadata !76, i32 2307} ; [ DW_TAG_subprogram ]
!1049 = metadata !{i32 786453, i32 0, metadata !"", i32 0, i32 0, i64 0, i64 0, i64 0, i32 0, null, metadata !1050, i32 0, i32 0} ; [ DW_TAG_subroutine_type ]
!1050 = metadata !{null, metadata !939, metadata !585, metadata !80, metadata !586, metadata !82}
!1051 = metadata !{i32 786478, i32 0, metadata !815, metadata !"to_string", metadata !"to_string", metadata !"_ZNK11ap_int_baseILi1ELb0ELb1EE9to_stringE8BaseModeb", metadata !64, i32 2334, metadata !1052, i1 false, i1 false, i32 0, i32 0, null, i32 256, i1 false, null, null, i32 0, metadata !76, i32 2334} ; [ DW_TAG_subprogram ]
!1052 = metadata !{i32 786453, i32 0, metadata !"", i32 0, i32 0, i64 0, i64 0, i64 0, i32 0, null, metadata !1053, i32 0, i32 0} ; [ DW_TAG_subroutine_type ]
!1053 = metadata !{metadata !585, metadata !939, metadata !586, metadata !82}
!1054 = metadata !{i32 786478, i32 0, metadata !815, metadata !"to_string", metadata !"to_string", metadata !"_ZNK11ap_int_baseILi1ELb0ELb1EE9to_stringEab", metadata !64, i32 2338, metadata !1055, i1 false, i1 false, i32 0, i32 0, null, i32 256, i1 false, null, null, i32 0, metadata !76, i32 2338} ; [ DW_TAG_subprogram ]
!1055 = metadata !{i32 786453, i32 0, metadata !"", i32 0, i32 0, i64 0, i64 0, i64 0, i32 0, null, metadata !1056, i32 0, i32 0} ; [ DW_TAG_subroutine_type ]
!1056 = metadata !{metadata !585, metadata !939, metadata !107, metadata !82}
!1057 = metadata !{metadata !1058, metadata !81, metadata !599}
!1058 = metadata !{i32 786480, null, metadata !"_AP_W", metadata !80, i64 1, null, i32 0, i32 0} ; [ DW_TAG_template_value_parameter ]
!1059 = metadata !{i32 786478, i32 0, metadata !812, metadata !"ap_uint", metadata !"ap_uint", metadata !"", metadata !60, i32 185, metadata !1060, i1 false, i1 false, i32 0, i32 0, null, i32 256, i1 false, null, null, i32 0, metadata !76, i32 185} ; [ DW_TAG_subprogram ]
!1060 = metadata !{i32 786453, i32 0, metadata !"", i32 0, i32 0, i64 0, i64 0, i64 0, i32 0, null, metadata !1061, i32 0, i32 0} ; [ DW_TAG_subroutine_type ]
!1061 = metadata !{null, metadata !1062}
!1062 = metadata !{i32 786447, i32 0, metadata !"", i32 0, i32 0, i64 64, i64 64, i64 0, i32 64, metadata !812} ; [ DW_TAG_pointer_type ]
!1063 = metadata !{i32 786478, i32 0, metadata !812, metadata !"ap_uint", metadata !"ap_uint", metadata !"", metadata !60, i32 247, metadata !1064, i1 false, i1 false, i32 0, i32 0, null, i32 256, i1 false, null, null, i32 0, metadata !76, i32 247} ; [ DW_TAG_subprogram ]
!1064 = metadata !{i32 786453, i32 0, metadata !"", i32 0, i32 0, i64 0, i64 0, i64 0, i32 0, null, metadata !1065, i32 0, i32 0} ; [ DW_TAG_subroutine_type ]
!1065 = metadata !{null, metadata !1062, metadata !82}
!1066 = metadata !{i32 786478, i32 0, metadata !812, metadata !"ap_uint", metadata !"ap_uint", metadata !"", metadata !60, i32 248, metadata !1067, i1 false, i1 false, i32 0, i32 0, null, i32 256, i1 false, null, null, i32 0, metadata !76, i32 248} ; [ DW_TAG_subprogram ]
!1067 = metadata !{i32 786453, i32 0, metadata !"", i32 0, i32 0, i64 0, i64 0, i64 0, i32 0, null, metadata !1068, i32 0, i32 0} ; [ DW_TAG_subroutine_type ]
!1068 = metadata !{null, metadata !1062, metadata !107}
!1069 = metadata !{i32 786478, i32 0, metadata !812, metadata !"ap_uint", metadata !"ap_uint", metadata !"", metadata !60, i32 249, metadata !1070, i1 false, i1 false, i32 0, i32 0, null, i32 256, i1 false, null, null, i32 0, metadata !76, i32 249} ; [ DW_TAG_subprogram ]
!1070 = metadata !{i32 786453, i32 0, metadata !"", i32 0, i32 0, i64 0, i64 0, i64 0, i32 0, null, metadata !1071, i32 0, i32 0} ; [ DW_TAG_subroutine_type ]
!1071 = metadata !{null, metadata !1062, metadata !111}
!1072 = metadata !{i32 786478, i32 0, metadata !812, metadata !"ap_uint", metadata !"ap_uint", metadata !"", metadata !60, i32 250, metadata !1073, i1 false, i1 false, i32 0, i32 0, null, i32 256, i1 false, null, null, i32 0, metadata !76, i32 250} ; [ DW_TAG_subprogram ]
!1073 = metadata !{i32 786453, i32 0, metadata !"", i32 0, i32 0, i64 0, i64 0, i64 0, i32 0, null, metadata !1074, i32 0, i32 0} ; [ DW_TAG_subroutine_type ]
!1074 = metadata !{null, metadata !1062, metadata !115}
!1075 = metadata !{i32 786478, i32 0, metadata !812, metadata !"ap_uint", metadata !"ap_uint", metadata !"", metadata !60, i32 251, metadata !1076, i1 false, i1 false, i32 0, i32 0, null, i32 256, i1 false, null, null, i32 0, metadata !76, i32 251} ; [ DW_TAG_subprogram ]
!1076 = metadata !{i32 786453, i32 0, metadata !"", i32 0, i32 0, i64 0, i64 0, i64 0, i32 0, null, metadata !1077, i32 0, i32 0} ; [ DW_TAG_subroutine_type ]
!1077 = metadata !{null, metadata !1062, metadata !119}
!1078 = metadata !{i32 786478, i32 0, metadata !812, metadata !"ap_uint", metadata !"ap_uint", metadata !"", metadata !60, i32 252, metadata !1079, i1 false, i1 false, i32 0, i32 0, null, i32 256, i1 false, null, null, i32 0, metadata !76, i32 252} ; [ DW_TAG_subprogram ]
!1079 = metadata !{i32 786453, i32 0, metadata !"", i32 0, i32 0, i64 0, i64 0, i64 0, i32 0, null, metadata !1080, i32 0, i32 0} ; [ DW_TAG_subroutine_type ]
!1080 = metadata !{null, metadata !1062, metadata !80}
!1081 = metadata !{i32 786478, i32 0, metadata !812, metadata !"ap_uint", metadata !"ap_uint", metadata !"", metadata !60, i32 253, metadata !1082, i1 false, i1 false, i32 0, i32 0, null, i32 256, i1 false, null, null, i32 0, metadata !76, i32 253} ; [ DW_TAG_subprogram ]
!1082 = metadata !{i32 786453, i32 0, metadata !"", i32 0, i32 0, i64 0, i64 0, i64 0, i32 0, null, metadata !1083, i32 0, i32 0} ; [ DW_TAG_subroutine_type ]
!1083 = metadata !{null, metadata !1062, metadata !126}
!1084 = metadata !{i32 786478, i32 0, metadata !812, metadata !"ap_uint", metadata !"ap_uint", metadata !"", metadata !60, i32 254, metadata !1085, i1 false, i1 false, i32 0, i32 0, null, i32 256, i1 false, null, null, i32 0, metadata !76, i32 254} ; [ DW_TAG_subprogram ]
!1085 = metadata !{i32 786453, i32 0, metadata !"", i32 0, i32 0, i64 0, i64 0, i64 0, i32 0, null, metadata !1086, i32 0, i32 0} ; [ DW_TAG_subroutine_type ]
!1086 = metadata !{null, metadata !1062, metadata !130}
!1087 = metadata !{i32 786478, i32 0, metadata !812, metadata !"ap_uint", metadata !"ap_uint", metadata !"", metadata !60, i32 255, metadata !1088, i1 false, i1 false, i32 0, i32 0, null, i32 256, i1 false, null, null, i32 0, metadata !76, i32 255} ; [ DW_TAG_subprogram ]
!1088 = metadata !{i32 786453, i32 0, metadata !"", i32 0, i32 0, i64 0, i64 0, i64 0, i32 0, null, metadata !1089, i32 0, i32 0} ; [ DW_TAG_subroutine_type ]
!1089 = metadata !{null, metadata !1062, metadata !134}
!1090 = metadata !{i32 786478, i32 0, metadata !812, metadata !"ap_uint", metadata !"ap_uint", metadata !"", metadata !60, i32 256, metadata !1091, i1 false, i1 false, i32 0, i32 0, null, i32 256, i1 false, null, null, i32 0, metadata !76, i32 256} ; [ DW_TAG_subprogram ]
!1091 = metadata !{i32 786453, i32 0, metadata !"", i32 0, i32 0, i64 0, i64 0, i64 0, i32 0, null, metadata !1092, i32 0, i32 0} ; [ DW_TAG_subroutine_type ]
!1092 = metadata !{null, metadata !1062, metadata !144}
!1093 = metadata !{i32 786478, i32 0, metadata !812, metadata !"ap_uint", metadata !"ap_uint", metadata !"", metadata !60, i32 257, metadata !1094, i1 false, i1 false, i32 0, i32 0, null, i32 256, i1 false, null, null, i32 0, metadata !76, i32 257} ; [ DW_TAG_subprogram ]
!1094 = metadata !{i32 786453, i32 0, metadata !"", i32 0, i32 0, i64 0, i64 0, i64 0, i32 0, null, metadata !1095, i32 0, i32 0} ; [ DW_TAG_subroutine_type ]
!1095 = metadata !{null, metadata !1062, metadata !139}
!1096 = metadata !{i32 786478, i32 0, metadata !812, metadata !"ap_uint", metadata !"ap_uint", metadata !"", metadata !60, i32 258, metadata !1097, i1 false, i1 false, i32 0, i32 0, null, i32 256, i1 false, null, null, i32 0, metadata !76, i32 258} ; [ DW_TAG_subprogram ]
!1097 = metadata !{i32 786453, i32 0, metadata !"", i32 0, i32 0, i64 0, i64 0, i64 0, i32 0, null, metadata !1098, i32 0, i32 0} ; [ DW_TAG_subroutine_type ]
!1098 = metadata !{null, metadata !1062, metadata !148}
!1099 = metadata !{i32 786478, i32 0, metadata !812, metadata !"ap_uint", metadata !"ap_uint", metadata !"", metadata !60, i32 259, metadata !1100, i1 false, i1 false, i32 0, i32 0, null, i32 256, i1 false, null, null, i32 0, metadata !76, i32 259} ; [ DW_TAG_subprogram ]
!1100 = metadata !{i32 786453, i32 0, metadata !"", i32 0, i32 0, i64 0, i64 0, i64 0, i32 0, null, metadata !1101, i32 0, i32 0} ; [ DW_TAG_subroutine_type ]
!1101 = metadata !{null, metadata !1062, metadata !153}
!1102 = metadata !{i32 786478, i32 0, metadata !812, metadata !"ap_uint", metadata !"ap_uint", metadata !"", metadata !60, i32 260, metadata !1103, i1 false, i1 false, i32 0, i32 0, null, i32 256, i1 false, null, null, i32 0, metadata !76, i32 260} ; [ DW_TAG_subprogram ]
!1103 = metadata !{i32 786453, i32 0, metadata !"", i32 0, i32 0, i64 0, i64 0, i64 0, i32 0, null, metadata !1104, i32 0, i32 0} ; [ DW_TAG_subroutine_type ]
!1104 = metadata !{null, metadata !1062, metadata !157}
!1105 = metadata !{i32 786478, i32 0, metadata !812, metadata !"ap_uint", metadata !"ap_uint", metadata !"", metadata !60, i32 262, metadata !1106, i1 false, i1 false, i32 0, i32 0, null, i32 256, i1 false, null, null, i32 0, metadata !76, i32 262} ; [ DW_TAG_subprogram ]
!1106 = metadata !{i32 786453, i32 0, metadata !"", i32 0, i32 0, i64 0, i64 0, i64 0, i32 0, null, metadata !1107, i32 0, i32 0} ; [ DW_TAG_subroutine_type ]
!1107 = metadata !{null, metadata !1062, metadata !161}
!1108 = metadata !{i32 786478, i32 0, metadata !812, metadata !"ap_uint", metadata !"ap_uint", metadata !"", metadata !60, i32 263, metadata !1109, i1 false, i1 false, i32 0, i32 0, null, i32 256, i1 false, null, null, i32 0, metadata !76, i32 263} ; [ DW_TAG_subprogram ]
!1109 = metadata !{i32 786453, i32 0, metadata !"", i32 0, i32 0, i64 0, i64 0, i64 0, i32 0, null, metadata !1110, i32 0, i32 0} ; [ DW_TAG_subroutine_type ]
!1110 = metadata !{null, metadata !1062, metadata !161, metadata !107}
!1111 = metadata !{i32 786478, i32 0, metadata !812, metadata !"operator=", metadata !"operator=", metadata !"_ZNV7ap_uintILi1EEaSERKS0_", metadata !60, i32 266, metadata !1112, i1 false, i1 false, i32 0, i32 0, null, i32 256, i1 false, null, null, i32 0, metadata !76, i32 266} ; [ DW_TAG_subprogram ]
!1112 = metadata !{i32 786453, i32 0, metadata !"", i32 0, i32 0, i64 0, i64 0, i64 0, i32 0, null, metadata !1113, i32 0, i32 0} ; [ DW_TAG_subroutine_type ]
!1113 = metadata !{null, metadata !1114, metadata !1116}
!1114 = metadata !{i32 786447, i32 0, metadata !"", i32 0, i32 0, i64 64, i64 64, i64 0, i32 64, metadata !1115} ; [ DW_TAG_pointer_type ]
!1115 = metadata !{i32 786485, null, metadata !"", null, i32 0, i64 0, i64 0, i64 0, i32 0, metadata !812} ; [ DW_TAG_volatile_type ]
!1116 = metadata !{i32 786448, null, null, null, i32 0, i64 0, i64 0, i64 0, i32 0, metadata !1117} ; [ DW_TAG_reference_type ]
!1117 = metadata !{i32 786470, null, metadata !"", null, i32 0, i64 0, i64 0, i64 0, i32 0, metadata !812} ; [ DW_TAG_const_type ]
!1118 = metadata !{i32 786478, i32 0, metadata !812, metadata !"operator=", metadata !"operator=", metadata !"_ZNV7ap_uintILi1EEaSERVKS0_", metadata !60, i32 270, metadata !1119, i1 false, i1 false, i32 0, i32 0, null, i32 256, i1 false, null, null, i32 0, metadata !76, i32 270} ; [ DW_TAG_subprogram ]
!1119 = metadata !{i32 786453, i32 0, metadata !"", i32 0, i32 0, i64 0, i64 0, i64 0, i32 0, null, metadata !1120, i32 0, i32 0} ; [ DW_TAG_subroutine_type ]
!1120 = metadata !{null, metadata !1114, metadata !1121}
!1121 = metadata !{i32 786448, null, null, null, i32 0, i64 0, i64 0, i64 0, i32 0, metadata !1122} ; [ DW_TAG_reference_type ]
!1122 = metadata !{i32 786470, null, metadata !"", null, i32 0, i64 0, i64 0, i64 0, i32 0, metadata !1115} ; [ DW_TAG_const_type ]
!1123 = metadata !{i32 786478, i32 0, metadata !812, metadata !"operator=", metadata !"operator=", metadata !"_ZN7ap_uintILi1EEaSERVKS0_", metadata !60, i32 274, metadata !1124, i1 false, i1 false, i32 0, i32 0, null, i32 256, i1 false, null, null, i32 0, metadata !76, i32 274} ; [ DW_TAG_subprogram ]
!1124 = metadata !{i32 786453, i32 0, metadata !"", i32 0, i32 0, i64 0, i64 0, i64 0, i32 0, null, metadata !1125, i32 0, i32 0} ; [ DW_TAG_subroutine_type ]
!1125 = metadata !{metadata !1126, metadata !1062, metadata !1121}
!1126 = metadata !{i32 786448, null, null, null, i32 0, i64 0, i64 0, i64 0, i32 0, metadata !812} ; [ DW_TAG_reference_type ]
!1127 = metadata !{i32 786478, i32 0, metadata !812, metadata !"operator=", metadata !"operator=", metadata !"_ZN7ap_uintILi1EEaSERKS0_", metadata !60, i32 279, metadata !1128, i1 false, i1 false, i32 0, i32 0, null, i32 256, i1 false, null, null, i32 0, metadata !76, i32 279} ; [ DW_TAG_subprogram ]
!1128 = metadata !{i32 786453, i32 0, metadata !"", i32 0, i32 0, i64 0, i64 0, i64 0, i32 0, null, metadata !1129, i32 0, i32 0} ; [ DW_TAG_subroutine_type ]
!1129 = metadata !{metadata !1126, metadata !1062, metadata !1116}
!1130 = metadata !{metadata !1058}
!1131 = metadata !{metadata !1132}
!1132 = metadata !{i32 0, i32 31, metadata !1133}
!1133 = metadata !{metadata !1134}
!1134 = metadata !{metadata !"in.V.V", metadata !45, metadata !"uint32", i32 0, i32 31}
!1135 = metadata !{metadata !1136}
!1136 = metadata !{i32 0, i32 31, metadata !1137}
!1137 = metadata !{metadata !1138}
!1138 = metadata !{metadata !"out.V.V", metadata !45, metadata !"uint32", i32 0, i32 31}
!1139 = metadata !{metadata !1140}
!1140 = metadata !{i32 0, i32 0, metadata !1141}
!1141 = metadata !{metadata !1142}
!1142 = metadata !{metadata !"latch.V", metadata !1143, metadata !"uint1", i32 0, i32 0}
!1143 = metadata !{metadata !1144}
!1144 = metadata !{i32 0, i32 0, i32 0}
!1145 = metadata !{i32 27, i32 1, metadata !48, null}
!1146 = metadata !{i32 28, i32 1, metadata !48, null}
!1147 = metadata !{i32 29, i32 1, metadata !48, null}
!1148 = metadata !{i32 790531, metadata !1149, metadata !"in.V.V", null, i32 23, metadata !1150, i32 0, i32 0} ; [ DW_TAG_arg_variable_field ]
!1149 = metadata !{i32 786689, metadata !49, metadata !"in", metadata !50, i32 16777239, metadata !53, i32 0, i32 0} ; [ DW_TAG_arg_variable ]
!1150 = metadata !{i32 786447, null, metadata !"", null, i32 0, i64 0, i64 0, i64 0, i32 0, metadata !1151} ; [ DW_TAG_pointer_type ]
!1151 = metadata !{i32 786438, metadata !55, metadata !"stream<ap_uint<32> >", metadata !56, i32 79, i64 32, i64 32, i32 0, i32 0, null, metadata !1152, i32 0, null, metadata !810} ; [ DW_TAG_class_field_type ]
!1152 = metadata !{metadata !1153}
!1153 = metadata !{i32 786438, null, metadata !"ap_uint<32>", metadata !60, i32 182, i64 32, i64 32, i32 0, i32 0, null, metadata !1154, i32 0, null, metadata !769} ; [ DW_TAG_class_field_type ]
!1154 = metadata !{metadata !1155}
!1155 = metadata !{i32 786438, null, metadata !"ap_int_base<32, false, true>", metadata !64, i32 1398, i64 32, i64 32, i32 0, i32 0, null, metadata !1156, i32 0, null, metadata !697} ; [ DW_TAG_class_field_type ]
!1156 = metadata !{metadata !1157}
!1157 = metadata !{i32 786438, null, metadata !"ssdm_int<32 + 1024 * 0, false>", metadata !68, i32 34, i64 32, i64 32, i32 0, i32 0, null, metadata !1158, i32 0, null, metadata !78} ; [ DW_TAG_class_field_type ]
!1158 = metadata !{metadata !70}
!1159 = metadata !{i32 23, i32 14, metadata !49, null}
!1160 = metadata !{i32 790531, metadata !1161, metadata !"out.V.V", null, i32 24, metadata !1150, i32 0, i32 0} ; [ DW_TAG_arg_variable_field ]
!1161 = metadata !{i32 786689, metadata !49, metadata !"out", metadata !50, i32 33554456, metadata !53, i32 0, i32 0} ; [ DW_TAG_arg_variable ]
!1162 = metadata !{i32 24, i32 14, metadata !49, null}
!1163 = metadata !{i32 59, i32 1, metadata !48, null}
!1164 = metadata !{i32 39, i32 2, metadata !48, null}
!1165 = metadata !{i32 41, i32 8, metadata !1166, null}
!1166 = metadata !{i32 786443, metadata !48, i32 39, i32 16, metadata !50, i32 1} ; [ DW_TAG_lexical_block ]
!1167 = metadata !{i32 790531, metadata !1168, metadata !"stream<ap_uint<32> >.V.V", null, i32 112, metadata !1171, i32 0, i32 0} ; [ DW_TAG_arg_variable_field ]
!1168 = metadata !{i32 786689, metadata !1169, metadata !"this", metadata !56, i32 16777328, metadata !1170, i32 64, i32 0} ; [ DW_TAG_arg_variable ]
!1169 = metadata !{i32 786478, i32 0, metadata !55, metadata !"empty", metadata !"empty", metadata !"_ZNK3hls6streamI7ap_uintILi32EEE5emptyEv", metadata !56, i32 112, metadata !792, i1 false, i1 true, i32 0, i32 0, null, i32 256, i1 false, null, null, metadata !791, metadata !76, i32 112} ; [ DW_TAG_subprogram ]
!1170 = metadata !{i32 786447, null, metadata !"", null, i32 0, i64 64, i64 64, i64 0, i32 0, metadata !781} ; [ DW_TAG_pointer_type ]
!1171 = metadata !{i32 786447, null, metadata !"", null, i32 0, i64 64, i64 64, i64 0, i32 0, metadata !1151} ; [ DW_TAG_pointer_type ]
!1172 = metadata !{i32 112, i32 48, metadata !1169, metadata !1173}
!1173 = metadata !{i32 44, i32 9, metadata !1166, null}
!1174 = metadata !{i32 113, i32 20, metadata !1175, metadata !1173}
!1175 = metadata !{i32 786443, metadata !1169, i32 112, i32 62, metadata !56, i32 10} ; [ DW_TAG_lexical_block ]
!1176 = metadata !{i32 786688, metadata !1175, metadata !"tmp", metadata !56, i32 113, metadata !82, i32 0, i32 0} ; [ DW_TAG_auto_variable ]
!1177 = metadata !{i32 790531, metadata !1178, metadata !"stream<ap_uint<32> >.V.V", null, i32 117, metadata !1171, i32 0, i32 0} ; [ DW_TAG_arg_variable_field ]
!1178 = metadata !{i32 786689, metadata !1179, metadata !"this", metadata !56, i32 16777333, metadata !1170, i32 64, i32 0} ; [ DW_TAG_arg_variable ]
!1179 = metadata !{i32 786478, i32 0, metadata !55, metadata !"full", metadata !"full", metadata !"_ZNK3hls6streamI7ap_uintILi32EEE4fullEv", metadata !56, i32 117, metadata !792, i1 false, i1 true, i32 0, i32 0, null, i32 256, i1 false, null, null, metadata !795, metadata !76, i32 117} ; [ DW_TAG_subprogram ]
!1180 = metadata !{i32 117, i32 48, metadata !1179, metadata !1181}
!1181 = metadata !{i32 50, i32 9, metadata !1166, null}
!1182 = metadata !{i32 118, i32 20, metadata !1183, metadata !1181}
!1183 = metadata !{i32 786443, metadata !1179, i32 117, i32 61, metadata !56, i32 6} ; [ DW_TAG_lexical_block ]
!1184 = metadata !{i32 786688, metadata !1183, metadata !"tmp", metadata !56, i32 118, metadata !82, i32 0, i32 0} ; [ DW_TAG_auto_variable ]
!1185 = metadata !{i32 41, i32 20, metadata !1166, null}
!1186 = metadata !{i32 42, i32 4, metadata !1166, null}
!1187 = metadata !{i32 790531, metadata !1188, metadata !"stream<ap_uint<32> >.V.V", null, i32 101, metadata !1171, i32 0, i32 0} ; [ DW_TAG_arg_variable_field ]
!1188 = metadata !{i32 786689, metadata !1189, metadata !"this", metadata !56, i32 16777317, metadata !1190, i32 64, i32 0} ; [ DW_TAG_arg_variable ]
!1189 = metadata !{i32 786478, i32 0, metadata !55, metadata !"operator>>", metadata !"operator>>", metadata !"_ZN3hls6streamI7ap_uintILi32EEErsERS2_", metadata !56, i32 101, metadata !786, i1 false, i1 true, i32 0, i32 0, null, i32 256, i1 false, null, null, metadata !785, metadata !76, i32 101} ; [ DW_TAG_subprogram ]
!1190 = metadata !{i32 786447, null, metadata !"", null, i32 0, i64 64, i64 64, i64 0, i32 0, metadata !54} ; [ DW_TAG_pointer_type ]
!1191 = metadata !{i32 101, i32 48, metadata !1189, metadata !1192}
!1192 = metadata !{i32 45, i32 5, metadata !1193, null}
!1193 = metadata !{i32 786443, metadata !1166, i32 44, i32 21, metadata !50, i32 2} ; [ DW_TAG_lexical_block ]
!1194 = metadata !{i32 790531, metadata !1195, metadata !"stream<ap_uint<32> >.V.V", null, i32 123, metadata !1171, i32 0, i32 0} ; [ DW_TAG_arg_variable_field ]
!1195 = metadata !{i32 786689, metadata !1196, metadata !"this", metadata !56, i32 16777339, metadata !1190, i32 64, i32 0} ; [ DW_TAG_arg_variable ]
!1196 = metadata !{i32 786478, i32 0, metadata !55, metadata !"read", metadata !"read", metadata !"_ZN3hls6streamI7ap_uintILi32EEE4readERS2_", metadata !56, i32 123, metadata !786, i1 false, i1 true, i32 0, i32 0, null, i32 256, i1 false, null, null, metadata !796, metadata !76, i32 123} ; [ DW_TAG_subprogram ]
!1197 = metadata !{i32 123, i32 48, metadata !1196, metadata !1198}
!1198 = metadata !{i32 102, i32 9, metadata !1199, metadata !1192}
!1199 = metadata !{i32 786443, metadata !1189, i32 101, i32 82, metadata !56, i32 7} ; [ DW_TAG_lexical_block ]
!1200 = metadata !{i32 125, i32 9, metadata !1201, metadata !1198}
!1201 = metadata !{i32 786443, metadata !1196, i32 123, i32 73, metadata !56, i32 8} ; [ DW_TAG_lexical_block ]
!1202 = metadata !{i32 790529, metadata !1203, metadata !"tmp.V", null, i32 124, metadata !1153, i32 0, i32 0} ; [ DW_TAG_auto_variable_field ]
!1203 = metadata !{i32 786688, metadata !1201, metadata !"tmp", metadata !56, i32 124, metadata !59, i32 0, i32 0} ; [ DW_TAG_auto_variable ]
!1204 = metadata !{i32 280, i32 10, metadata !1205, metadata !1207}
!1205 = metadata !{i32 786443, metadata !1206, i32 279, i32 92, metadata !60, i32 9} ; [ DW_TAG_lexical_block ]
!1206 = metadata !{i32 786478, i32 0, null, metadata !"operator=", metadata !"operator=", metadata !"_ZN7ap_uintILi32EEaSERKS0_", metadata !60, i32 279, metadata !767, i1 false, i1 true, i32 0, i32 0, null, i32 256, i1 false, null, null, metadata !766, metadata !76, i32 279} ; [ DW_TAG_subprogram ]
!1207 = metadata !{i32 126, i32 9, metadata !1201, metadata !1198}
!1208 = metadata !{i32 46, i32 5, metadata !1193, null}
!1209 = metadata !{i32 47, i32 4, metadata !1193, null}
!1210 = metadata !{i32 48, i32 4, metadata !1166, null}
!1211 = metadata !{i32 790531, metadata !1212, metadata !"stream<ap_uint<32> >.V.V", null, i32 105, metadata !1171, i32 0, i32 0} ; [ DW_TAG_arg_variable_field ]
!1212 = metadata !{i32 786689, metadata !1213, metadata !"this", metadata !56, i32 16777321, metadata !1190, i32 64, i32 0} ; [ DW_TAG_arg_variable ]
!1213 = metadata !{i32 786478, i32 0, metadata !55, metadata !"operator<<", metadata !"operator<<", metadata !"_ZN3hls6streamI7ap_uintILi32EEElsERKS2_", metadata !56, i32 105, metadata !789, i1 false, i1 true, i32 0, i32 0, null, i32 256, i1 false, null, null, metadata !788, metadata !76, i32 105} ; [ DW_TAG_subprogram ]
!1214 = metadata !{i32 105, i32 48, metadata !1213, metadata !1215}
!1215 = metadata !{i32 51, i32 5, metadata !1216, null}
!1216 = metadata !{i32 786443, metadata !1166, i32 50, i32 21, metadata !50, i32 3} ; [ DW_TAG_lexical_block ]
!1217 = metadata !{i32 790531, metadata !1218, metadata !"stream<ap_uint<32> >.V.V", null, i32 144, metadata !1171, i32 0, i32 0} ; [ DW_TAG_arg_variable_field ]
!1218 = metadata !{i32 786689, metadata !1219, metadata !"this", metadata !56, i32 16777360, metadata !1190, i32 64, i32 0} ; [ DW_TAG_arg_variable ]
!1219 = metadata !{i32 786478, i32 0, metadata !55, metadata !"write", metadata !"write", metadata !"_ZN3hls6streamI7ap_uintILi32EEE5writeERKS2_", metadata !56, i32 144, metadata !789, i1 false, i1 true, i32 0, i32 0, null, i32 256, i1 false, null, null, metadata !803, metadata !76, i32 144} ; [ DW_TAG_subprogram ]
!1220 = metadata !{i32 144, i32 48, metadata !1219, metadata !1221}
!1221 = metadata !{i32 106, i32 9, metadata !1222, metadata !1215}
!1222 = metadata !{i32 786443, metadata !1213, i32 105, i32 88, metadata !56, i32 4} ; [ DW_TAG_lexical_block ]
!1223 = metadata !{i32 145, i32 31, metadata !1224, metadata !1221}
!1224 = metadata !{i32 786443, metadata !1219, i32 144, i32 79, metadata !56, i32 5} ; [ DW_TAG_lexical_block ]
!1225 = metadata !{i32 790529, metadata !1226, metadata !"tmp.V", null, i32 145, metadata !1153, i32 0, i32 0} ; [ DW_TAG_auto_variable_field ]
!1226 = metadata !{i32 786688, metadata !1224, metadata !"tmp", metadata !56, i32 145, metadata !59, i32 0, i32 0} ; [ DW_TAG_auto_variable ]
!1227 = metadata !{i32 146, i32 9, metadata !1224, metadata !1221}
!1228 = metadata !{i32 52, i32 5, metadata !1216, null}
!1229 = metadata !{i32 53, i32 4, metadata !1216, null}
!1230 = metadata !{i32 54, i32 4, metadata !1166, null}
